   1               		.file	"EndpointStream_AVR8.c"
   2               	__SREG__ = 0x3f
   3               	__SP_H__ = 0x3e
   4               	__SP_L__ = 0x3d
   5               	__CCP__ = 0x34
   6               	__tmp_reg__ = 0
   7               	__zero_reg__ = 1
   8               		.global __do_copy_data
   9               		.global __do_clear_bss
  10               		.text
  11               	.Ltext0:
  12               		.cfi_sections	.debug_frame
  13               		.section	.text.Endpoint_Discard_Stream,"ax",@progbits
  14               	.global	Endpoint_Discard_Stream
  16               	Endpoint_Discard_Stream:
  17               	.LFB81:
  18               		.file 1 "../../LUFA-Libs/Arduino_LUFA_Bootloader/LUFA/Drivers/USB/Core/AVR8/EndpointStream_AVR8.c"
   1:../../LUFA-Libs/Arduino_LUFA_Bootloader/LUFA/Drivers/USB/Core/AVR8/EndpointStream_AVR8.c **** /*
   2:../../LUFA-Libs/Arduino_LUFA_Bootloader/LUFA/Drivers/USB/Core/AVR8/EndpointStream_AVR8.c ****              LUFA Library
   3:../../LUFA-Libs/Arduino_LUFA_Bootloader/LUFA/Drivers/USB/Core/AVR8/EndpointStream_AVR8.c ****      Copyright (C) Dean Camera, 2011.
   4:../../LUFA-Libs/Arduino_LUFA_Bootloader/LUFA/Drivers/USB/Core/AVR8/EndpointStream_AVR8.c ****               
   5:../../LUFA-Libs/Arduino_LUFA_Bootloader/LUFA/Drivers/USB/Core/AVR8/EndpointStream_AVR8.c ****   dean [at] fourwalledcubicle [dot] com
   6:../../LUFA-Libs/Arduino_LUFA_Bootloader/LUFA/Drivers/USB/Core/AVR8/EndpointStream_AVR8.c ****            www.lufa-lib.org
   7:../../LUFA-Libs/Arduino_LUFA_Bootloader/LUFA/Drivers/USB/Core/AVR8/EndpointStream_AVR8.c **** */
   8:../../LUFA-Libs/Arduino_LUFA_Bootloader/LUFA/Drivers/USB/Core/AVR8/EndpointStream_AVR8.c **** 
   9:../../LUFA-Libs/Arduino_LUFA_Bootloader/LUFA/Drivers/USB/Core/AVR8/EndpointStream_AVR8.c **** /*
  10:../../LUFA-Libs/Arduino_LUFA_Bootloader/LUFA/Drivers/USB/Core/AVR8/EndpointStream_AVR8.c ****   Copyright 2011  Dean Camera (dean [at] fourwalledcubicle [dot] com)
  11:../../LUFA-Libs/Arduino_LUFA_Bootloader/LUFA/Drivers/USB/Core/AVR8/EndpointStream_AVR8.c **** 
  12:../../LUFA-Libs/Arduino_LUFA_Bootloader/LUFA/Drivers/USB/Core/AVR8/EndpointStream_AVR8.c ****   Permission to use, copy, modify, distribute, and sell this 
  13:../../LUFA-Libs/Arduino_LUFA_Bootloader/LUFA/Drivers/USB/Core/AVR8/EndpointStream_AVR8.c ****   software and its documentation for any purpose is hereby granted
  14:../../LUFA-Libs/Arduino_LUFA_Bootloader/LUFA/Drivers/USB/Core/AVR8/EndpointStream_AVR8.c ****   without fee, provided that the above copyright notice appear in 
  15:../../LUFA-Libs/Arduino_LUFA_Bootloader/LUFA/Drivers/USB/Core/AVR8/EndpointStream_AVR8.c ****   all copies and that both that the copyright notice and this
  16:../../LUFA-Libs/Arduino_LUFA_Bootloader/LUFA/Drivers/USB/Core/AVR8/EndpointStream_AVR8.c ****   permission notice and warranty disclaimer appear in supporting 
  17:../../LUFA-Libs/Arduino_LUFA_Bootloader/LUFA/Drivers/USB/Core/AVR8/EndpointStream_AVR8.c ****   documentation, and that the name of the author not be used in 
  18:../../LUFA-Libs/Arduino_LUFA_Bootloader/LUFA/Drivers/USB/Core/AVR8/EndpointStream_AVR8.c ****   advertising or publicity pertaining to distribution of the 
  19:../../LUFA-Libs/Arduino_LUFA_Bootloader/LUFA/Drivers/USB/Core/AVR8/EndpointStream_AVR8.c ****   software without specific, written prior permission.
  20:../../LUFA-Libs/Arduino_LUFA_Bootloader/LUFA/Drivers/USB/Core/AVR8/EndpointStream_AVR8.c **** 
  21:../../LUFA-Libs/Arduino_LUFA_Bootloader/LUFA/Drivers/USB/Core/AVR8/EndpointStream_AVR8.c ****   The author disclaim all warranties with regard to this
  22:../../LUFA-Libs/Arduino_LUFA_Bootloader/LUFA/Drivers/USB/Core/AVR8/EndpointStream_AVR8.c ****   software, including all implied warranties of merchantability
  23:../../LUFA-Libs/Arduino_LUFA_Bootloader/LUFA/Drivers/USB/Core/AVR8/EndpointStream_AVR8.c ****   and fitness.  In no event shall the author be liable for any
  24:../../LUFA-Libs/Arduino_LUFA_Bootloader/LUFA/Drivers/USB/Core/AVR8/EndpointStream_AVR8.c ****   special, indirect or consequential damages or any damages
  25:../../LUFA-Libs/Arduino_LUFA_Bootloader/LUFA/Drivers/USB/Core/AVR8/EndpointStream_AVR8.c ****   whatsoever resulting from loss of use, data or profits, whether
  26:../../LUFA-Libs/Arduino_LUFA_Bootloader/LUFA/Drivers/USB/Core/AVR8/EndpointStream_AVR8.c ****   in an action of contract, negligence or other tortious action,
  27:../../LUFA-Libs/Arduino_LUFA_Bootloader/LUFA/Drivers/USB/Core/AVR8/EndpointStream_AVR8.c ****   arising out of or in connection with the use or performance of
  28:../../LUFA-Libs/Arduino_LUFA_Bootloader/LUFA/Drivers/USB/Core/AVR8/EndpointStream_AVR8.c ****   this software.
  29:../../LUFA-Libs/Arduino_LUFA_Bootloader/LUFA/Drivers/USB/Core/AVR8/EndpointStream_AVR8.c **** */
  30:../../LUFA-Libs/Arduino_LUFA_Bootloader/LUFA/Drivers/USB/Core/AVR8/EndpointStream_AVR8.c **** 
  31:../../LUFA-Libs/Arduino_LUFA_Bootloader/LUFA/Drivers/USB/Core/AVR8/EndpointStream_AVR8.c **** #define  __INCLUDE_FROM_USB_DRIVER
  32:../../LUFA-Libs/Arduino_LUFA_Bootloader/LUFA/Drivers/USB/Core/AVR8/EndpointStream_AVR8.c **** #include "../USBMode.h"
  33:../../LUFA-Libs/Arduino_LUFA_Bootloader/LUFA/Drivers/USB/Core/AVR8/EndpointStream_AVR8.c **** 
  34:../../LUFA-Libs/Arduino_LUFA_Bootloader/LUFA/Drivers/USB/Core/AVR8/EndpointStream_AVR8.c **** #if defined(USB_CAN_BE_DEVICE)
  35:../../LUFA-Libs/Arduino_LUFA_Bootloader/LUFA/Drivers/USB/Core/AVR8/EndpointStream_AVR8.c **** 
  36:../../LUFA-Libs/Arduino_LUFA_Bootloader/LUFA/Drivers/USB/Core/AVR8/EndpointStream_AVR8.c **** #include "EndpointStream_AVR8.h"
  37:../../LUFA-Libs/Arduino_LUFA_Bootloader/LUFA/Drivers/USB/Core/AVR8/EndpointStream_AVR8.c **** 
  38:../../LUFA-Libs/Arduino_LUFA_Bootloader/LUFA/Drivers/USB/Core/AVR8/EndpointStream_AVR8.c **** #if !defined(CONTROL_ONLY_DEVICE)
  39:../../LUFA-Libs/Arduino_LUFA_Bootloader/LUFA/Drivers/USB/Core/AVR8/EndpointStream_AVR8.c **** uint8_t Endpoint_Discard_Stream(uint16_t Length,
  40:../../LUFA-Libs/Arduino_LUFA_Bootloader/LUFA/Drivers/USB/Core/AVR8/EndpointStream_AVR8.c ****                                 uint16_t* const BytesProcessed)
  41:../../LUFA-Libs/Arduino_LUFA_Bootloader/LUFA/Drivers/USB/Core/AVR8/EndpointStream_AVR8.c **** {
  19               		.loc 1 41 0
  20               		.cfi_startproc
  21               	.LVL0:
  22 0000 DF92      		push r13
  23               	.LCFI0:
  24               		.cfi_def_cfa_offset 3
  25               		.cfi_offset 13, -2
  26 0002 EF92      		push r14
  27               	.LCFI1:
  28               		.cfi_def_cfa_offset 4
  29               		.cfi_offset 14, -3
  30 0004 FF92      		push r15
  31               	.LCFI2:
  32               		.cfi_def_cfa_offset 5
  33               		.cfi_offset 15, -4
  34 0006 0F93      		push r16
  35               	.LCFI3:
  36               		.cfi_def_cfa_offset 6
  37               		.cfi_offset 16, -5
  38 0008 1F93      		push r17
  39               	.LCFI4:
  40               		.cfi_def_cfa_offset 7
  41               		.cfi_offset 17, -6
  42 000a CF93      		push r28
  43               	.LCFI5:
  44               		.cfi_def_cfa_offset 8
  45               		.cfi_offset 28, -7
  46 000c DF93      		push r29
  47               	.LCFI6:
  48               		.cfi_def_cfa_offset 9
  49               		.cfi_offset 29, -8
  50               	/* prologue: function */
  51               	/* frame size = 0 */
  52               	/* stack size = 7 */
  53               	.L__stack_usage = 7
  54 000e EC01      		movw r28,r24
  55 0010 8B01      		movw r16,r22
  56               	.LVL1:
  42:../../LUFA-Libs/Arduino_LUFA_Bootloader/LUFA/Drivers/USB/Core/AVR8/EndpointStream_AVR8.c **** 	uint8_t  ErrorCode;
  43:../../LUFA-Libs/Arduino_LUFA_Bootloader/LUFA/Drivers/USB/Core/AVR8/EndpointStream_AVR8.c **** 	uint16_t BytesInTransfer = 0;
  44:../../LUFA-Libs/Arduino_LUFA_Bootloader/LUFA/Drivers/USB/Core/AVR8/EndpointStream_AVR8.c **** 	
  45:../../LUFA-Libs/Arduino_LUFA_Bootloader/LUFA/Drivers/USB/Core/AVR8/EndpointStream_AVR8.c **** 	if ((ErrorCode = Endpoint_WaitUntilReady()))
  57               		.loc 1 45 0
  58 0012 0E94 0000 		call Endpoint_WaitUntilReady
  59               	.LVL2:
  60 0016 D82E      		mov r13,r24
  61               	.LVL3:
  62 0018 8823      		tst r24
  63 001a 01F4      		brne .L2
  46:../../LUFA-Libs/Arduino_LUFA_Bootloader/LUFA/Drivers/USB/Core/AVR8/EndpointStream_AVR8.c **** 	  return ErrorCode;
  47:../../LUFA-Libs/Arduino_LUFA_Bootloader/LUFA/Drivers/USB/Core/AVR8/EndpointStream_AVR8.c **** 	  
  48:../../LUFA-Libs/Arduino_LUFA_Bootloader/LUFA/Drivers/USB/Core/AVR8/EndpointStream_AVR8.c **** 	if (BytesProcessed != NULL)
  64               		.loc 1 48 0
  65 001c 0115      		cp r16,__zero_reg__
  66 001e 1105      		cpc r17,__zero_reg__
  67 0020 01F0      		breq .L3
  49:../../LUFA-Libs/Arduino_LUFA_Bootloader/LUFA/Drivers/USB/Core/AVR8/EndpointStream_AVR8.c **** 	  Length -= *BytesProcessed;
  68               		.loc 1 49 0
  69 0022 F801      		movw r30,r16
  70 0024 2081      		ld r18,Z
  71 0026 3181      		ldd r19,Z+1
  72 0028 C21B      		sub r28,r18
  73 002a D30B      		sbc r29,r19
  74               	.LVL4:
  75               	.L3:
  41:../../LUFA-Libs/Arduino_LUFA_Bootloader/LUFA/Drivers/USB/Core/AVR8/EndpointStream_AVR8.c **** {
  76               		.loc 1 41 0 discriminator 1
  77 002c EE24      		clr r14
  78 002e FF24      		clr r15
  79 0030 00C0      		rjmp .L10
  80               	.LVL5:
  81               	.L8:
  82               	.LBB256:
  83               	.LBB257:
  84               		.file 2 "../../LUFA-Libs/Arduino_LUFA_Bootloader/LUFA/Drivers/USB/Core/AVR8/../AVR8/../AVR8/Endpoi
   1:../../LUFA-Libs/Arduino_LUFA_Bootloader/LUFA/Drivers/USB/Core/AVR8/../AVR8/../AVR8/Endpoint_AVR8.h **** /*
   2:../../LUFA-Libs/Arduino_LUFA_Bootloader/LUFA/Drivers/USB/Core/AVR8/../AVR8/../AVR8/Endpoint_AVR8.h ****              LUFA Library
   3:../../LUFA-Libs/Arduino_LUFA_Bootloader/LUFA/Drivers/USB/Core/AVR8/../AVR8/../AVR8/Endpoint_AVR8.h ****      Copyright (C) Dean Camera, 2011.
   4:../../LUFA-Libs/Arduino_LUFA_Bootloader/LUFA/Drivers/USB/Core/AVR8/../AVR8/../AVR8/Endpoint_AVR8.h **** 
   5:../../LUFA-Libs/Arduino_LUFA_Bootloader/LUFA/Drivers/USB/Core/AVR8/../AVR8/../AVR8/Endpoint_AVR8.h ****   dean [at] fourwalledcubicle [dot] com
   6:../../LUFA-Libs/Arduino_LUFA_Bootloader/LUFA/Drivers/USB/Core/AVR8/../AVR8/../AVR8/Endpoint_AVR8.h ****            www.lufa-lib.org
   7:../../LUFA-Libs/Arduino_LUFA_Bootloader/LUFA/Drivers/USB/Core/AVR8/../AVR8/../AVR8/Endpoint_AVR8.h **** */
   8:../../LUFA-Libs/Arduino_LUFA_Bootloader/LUFA/Drivers/USB/Core/AVR8/../AVR8/../AVR8/Endpoint_AVR8.h **** 
   9:../../LUFA-Libs/Arduino_LUFA_Bootloader/LUFA/Drivers/USB/Core/AVR8/../AVR8/../AVR8/Endpoint_AVR8.h **** /*
  10:../../LUFA-Libs/Arduino_LUFA_Bootloader/LUFA/Drivers/USB/Core/AVR8/../AVR8/../AVR8/Endpoint_AVR8.h ****   Copyright 2011  Dean Camera (dean [at] fourwalledcubicle [dot] com)
  11:../../LUFA-Libs/Arduino_LUFA_Bootloader/LUFA/Drivers/USB/Core/AVR8/../AVR8/../AVR8/Endpoint_AVR8.h **** 
  12:../../LUFA-Libs/Arduino_LUFA_Bootloader/LUFA/Drivers/USB/Core/AVR8/../AVR8/../AVR8/Endpoint_AVR8.h ****   Permission to use, copy, modify, distribute, and sell this
  13:../../LUFA-Libs/Arduino_LUFA_Bootloader/LUFA/Drivers/USB/Core/AVR8/../AVR8/../AVR8/Endpoint_AVR8.h ****   software and its documentation for any purpose is hereby granted
  14:../../LUFA-Libs/Arduino_LUFA_Bootloader/LUFA/Drivers/USB/Core/AVR8/../AVR8/../AVR8/Endpoint_AVR8.h ****   without fee, provided that the above copyright notice appear in
  15:../../LUFA-Libs/Arduino_LUFA_Bootloader/LUFA/Drivers/USB/Core/AVR8/../AVR8/../AVR8/Endpoint_AVR8.h ****   all copies and that both that the copyright notice and this
  16:../../LUFA-Libs/Arduino_LUFA_Bootloader/LUFA/Drivers/USB/Core/AVR8/../AVR8/../AVR8/Endpoint_AVR8.h ****   permission notice and warranty disclaimer appear in supporting
  17:../../LUFA-Libs/Arduino_LUFA_Bootloader/LUFA/Drivers/USB/Core/AVR8/../AVR8/../AVR8/Endpoint_AVR8.h ****   documentation, and that the name of the author not be used in
  18:../../LUFA-Libs/Arduino_LUFA_Bootloader/LUFA/Drivers/USB/Core/AVR8/../AVR8/../AVR8/Endpoint_AVR8.h ****   advertising or publicity pertaining to distribution of the
  19:../../LUFA-Libs/Arduino_LUFA_Bootloader/LUFA/Drivers/USB/Core/AVR8/../AVR8/../AVR8/Endpoint_AVR8.h ****   software without specific, written prior permission.
  20:../../LUFA-Libs/Arduino_LUFA_Bootloader/LUFA/Drivers/USB/Core/AVR8/../AVR8/../AVR8/Endpoint_AVR8.h **** 
  21:../../LUFA-Libs/Arduino_LUFA_Bootloader/LUFA/Drivers/USB/Core/AVR8/../AVR8/../AVR8/Endpoint_AVR8.h ****   The author disclaim all warranties with regard to this
  22:../../LUFA-Libs/Arduino_LUFA_Bootloader/LUFA/Drivers/USB/Core/AVR8/../AVR8/../AVR8/Endpoint_AVR8.h ****   software, including all implied warranties of merchantability
  23:../../LUFA-Libs/Arduino_LUFA_Bootloader/LUFA/Drivers/USB/Core/AVR8/../AVR8/../AVR8/Endpoint_AVR8.h ****   and fitness.  In no event shall the author be liable for any
  24:../../LUFA-Libs/Arduino_LUFA_Bootloader/LUFA/Drivers/USB/Core/AVR8/../AVR8/../AVR8/Endpoint_AVR8.h ****   special, indirect or consequential damages or any damages
  25:../../LUFA-Libs/Arduino_LUFA_Bootloader/LUFA/Drivers/USB/Core/AVR8/../AVR8/../AVR8/Endpoint_AVR8.h ****   whatsoever resulting from loss of use, data or profits, whether
  26:../../LUFA-Libs/Arduino_LUFA_Bootloader/LUFA/Drivers/USB/Core/AVR8/../AVR8/../AVR8/Endpoint_AVR8.h ****   in an action of contract, negligence or other tortious action,
  27:../../LUFA-Libs/Arduino_LUFA_Bootloader/LUFA/Drivers/USB/Core/AVR8/../AVR8/../AVR8/Endpoint_AVR8.h ****   arising out of or in connection with the use or performance of
  28:../../LUFA-Libs/Arduino_LUFA_Bootloader/LUFA/Drivers/USB/Core/AVR8/../AVR8/../AVR8/Endpoint_AVR8.h ****   this software.
  29:../../LUFA-Libs/Arduino_LUFA_Bootloader/LUFA/Drivers/USB/Core/AVR8/../AVR8/../AVR8/Endpoint_AVR8.h **** */
  30:../../LUFA-Libs/Arduino_LUFA_Bootloader/LUFA/Drivers/USB/Core/AVR8/../AVR8/../AVR8/Endpoint_AVR8.h **** 
  31:../../LUFA-Libs/Arduino_LUFA_Bootloader/LUFA/Drivers/USB/Core/AVR8/../AVR8/../AVR8/Endpoint_AVR8.h **** /** \file
  32:../../LUFA-Libs/Arduino_LUFA_Bootloader/LUFA/Drivers/USB/Core/AVR8/../AVR8/../AVR8/Endpoint_AVR8.h ****  *  \brief USB Endpoint definitions for the AVR8 microcontrollers.
  33:../../LUFA-Libs/Arduino_LUFA_Bootloader/LUFA/Drivers/USB/Core/AVR8/../AVR8/../AVR8/Endpoint_AVR8.h ****  *  \copydetails Group_EndpointManagement_AVR8
  34:../../LUFA-Libs/Arduino_LUFA_Bootloader/LUFA/Drivers/USB/Core/AVR8/../AVR8/../AVR8/Endpoint_AVR8.h ****  *
  35:../../LUFA-Libs/Arduino_LUFA_Bootloader/LUFA/Drivers/USB/Core/AVR8/../AVR8/../AVR8/Endpoint_AVR8.h ****  *  \note This file should not be included directly. It is automatically included as needed by the 
  36:../../LUFA-Libs/Arduino_LUFA_Bootloader/LUFA/Drivers/USB/Core/AVR8/../AVR8/../AVR8/Endpoint_AVR8.h ****  *        dispatch header located in LUFA/Drivers/USB/USB.h.
  37:../../LUFA-Libs/Arduino_LUFA_Bootloader/LUFA/Drivers/USB/Core/AVR8/../AVR8/../AVR8/Endpoint_AVR8.h ****  */
  38:../../LUFA-Libs/Arduino_LUFA_Bootloader/LUFA/Drivers/USB/Core/AVR8/../AVR8/../AVR8/Endpoint_AVR8.h **** 
  39:../../LUFA-Libs/Arduino_LUFA_Bootloader/LUFA/Drivers/USB/Core/AVR8/../AVR8/../AVR8/Endpoint_AVR8.h **** /** \ingroup Group_EndpointRW
  40:../../LUFA-Libs/Arduino_LUFA_Bootloader/LUFA/Drivers/USB/Core/AVR8/../AVR8/../AVR8/Endpoint_AVR8.h ****  *  \defgroup Group_EndpointRW_AVR8 Endpoint Data Reading and Writing (AVR8)
  41:../../LUFA-Libs/Arduino_LUFA_Bootloader/LUFA/Drivers/USB/Core/AVR8/../AVR8/../AVR8/Endpoint_AVR8.h ****  *  \brief Endpoint data read/write definitions for the Atmel AVR8 architecture.
  42:../../LUFA-Libs/Arduino_LUFA_Bootloader/LUFA/Drivers/USB/Core/AVR8/../AVR8/../AVR8/Endpoint_AVR8.h ****  *
  43:../../LUFA-Libs/Arduino_LUFA_Bootloader/LUFA/Drivers/USB/Core/AVR8/../AVR8/../AVR8/Endpoint_AVR8.h ****  *  Functions, macros, variables, enums and types related to data reading and writing from and to e
  44:../../LUFA-Libs/Arduino_LUFA_Bootloader/LUFA/Drivers/USB/Core/AVR8/../AVR8/../AVR8/Endpoint_AVR8.h ****  */
  45:../../LUFA-Libs/Arduino_LUFA_Bootloader/LUFA/Drivers/USB/Core/AVR8/../AVR8/../AVR8/Endpoint_AVR8.h **** 
  46:../../LUFA-Libs/Arduino_LUFA_Bootloader/LUFA/Drivers/USB/Core/AVR8/../AVR8/../AVR8/Endpoint_AVR8.h **** /** \ingroup Group_EndpointPrimitiveRW
  47:../../LUFA-Libs/Arduino_LUFA_Bootloader/LUFA/Drivers/USB/Core/AVR8/../AVR8/../AVR8/Endpoint_AVR8.h ****  *  \defgroup Group_EndpointPrimitiveRW_AVR8 Read/Write of Primitive Data Types (AVR8)
  48:../../LUFA-Libs/Arduino_LUFA_Bootloader/LUFA/Drivers/USB/Core/AVR8/../AVR8/../AVR8/Endpoint_AVR8.h ****  *  \brief Endpoint primitive read/write definitions for the Atmel AVR8 architecture.
  49:../../LUFA-Libs/Arduino_LUFA_Bootloader/LUFA/Drivers/USB/Core/AVR8/../AVR8/../AVR8/Endpoint_AVR8.h ****  *
  50:../../LUFA-Libs/Arduino_LUFA_Bootloader/LUFA/Drivers/USB/Core/AVR8/../AVR8/../AVR8/Endpoint_AVR8.h ****  *  Functions, macros, variables, enums and types related to data reading and writing of primitive 
  51:../../LUFA-Libs/Arduino_LUFA_Bootloader/LUFA/Drivers/USB/Core/AVR8/../AVR8/../AVR8/Endpoint_AVR8.h ****  *  from and to endpoints.
  52:../../LUFA-Libs/Arduino_LUFA_Bootloader/LUFA/Drivers/USB/Core/AVR8/../AVR8/../AVR8/Endpoint_AVR8.h ****  */
  53:../../LUFA-Libs/Arduino_LUFA_Bootloader/LUFA/Drivers/USB/Core/AVR8/../AVR8/../AVR8/Endpoint_AVR8.h **** 
  54:../../LUFA-Libs/Arduino_LUFA_Bootloader/LUFA/Drivers/USB/Core/AVR8/../AVR8/../AVR8/Endpoint_AVR8.h **** /** \ingroup Group_EndpointPacketManagement
  55:../../LUFA-Libs/Arduino_LUFA_Bootloader/LUFA/Drivers/USB/Core/AVR8/../AVR8/../AVR8/Endpoint_AVR8.h ****  *  \defgroup Group_EndpointPacketManagement_AVR8 Endpoint Packet Management (AVR8)
  56:../../LUFA-Libs/Arduino_LUFA_Bootloader/LUFA/Drivers/USB/Core/AVR8/../AVR8/../AVR8/Endpoint_AVR8.h ****  *  \brief Endpoint packet management definitions for the Atmel AVR8 architecture.
  57:../../LUFA-Libs/Arduino_LUFA_Bootloader/LUFA/Drivers/USB/Core/AVR8/../AVR8/../AVR8/Endpoint_AVR8.h ****  *
  58:../../LUFA-Libs/Arduino_LUFA_Bootloader/LUFA/Drivers/USB/Core/AVR8/../AVR8/../AVR8/Endpoint_AVR8.h ****  *  Functions, macros, variables, enums and types related to packet management of endpoints.
  59:../../LUFA-Libs/Arduino_LUFA_Bootloader/LUFA/Drivers/USB/Core/AVR8/../AVR8/../AVR8/Endpoint_AVR8.h ****  */
  60:../../LUFA-Libs/Arduino_LUFA_Bootloader/LUFA/Drivers/USB/Core/AVR8/../AVR8/../AVR8/Endpoint_AVR8.h **** 
  61:../../LUFA-Libs/Arduino_LUFA_Bootloader/LUFA/Drivers/USB/Core/AVR8/../AVR8/../AVR8/Endpoint_AVR8.h **** /** \ingroup Group_EndpointManagement
  62:../../LUFA-Libs/Arduino_LUFA_Bootloader/LUFA/Drivers/USB/Core/AVR8/../AVR8/../AVR8/Endpoint_AVR8.h ****  *  \defgroup Group_EndpointManagement_AVR8 Endpoint Management (AVR8)
  63:../../LUFA-Libs/Arduino_LUFA_Bootloader/LUFA/Drivers/USB/Core/AVR8/../AVR8/../AVR8/Endpoint_AVR8.h ****  *  \brief Endpoint management definitions for the Atmel AVR8 architecture.
  64:../../LUFA-Libs/Arduino_LUFA_Bootloader/LUFA/Drivers/USB/Core/AVR8/../AVR8/../AVR8/Endpoint_AVR8.h ****  *
  65:../../LUFA-Libs/Arduino_LUFA_Bootloader/LUFA/Drivers/USB/Core/AVR8/../AVR8/../AVR8/Endpoint_AVR8.h ****  *  Functions, macros and enums related to endpoint management when in USB Device mode. This
  66:../../LUFA-Libs/Arduino_LUFA_Bootloader/LUFA/Drivers/USB/Core/AVR8/../AVR8/../AVR8/Endpoint_AVR8.h ****  *  module contains the endpoint management macros, as well as endpoint interrupt and data
  67:../../LUFA-Libs/Arduino_LUFA_Bootloader/LUFA/Drivers/USB/Core/AVR8/../AVR8/../AVR8/Endpoint_AVR8.h ****  *  send/receive functions for various data types.
  68:../../LUFA-Libs/Arduino_LUFA_Bootloader/LUFA/Drivers/USB/Core/AVR8/../AVR8/../AVR8/Endpoint_AVR8.h ****  *
  69:../../LUFA-Libs/Arduino_LUFA_Bootloader/LUFA/Drivers/USB/Core/AVR8/../AVR8/../AVR8/Endpoint_AVR8.h ****  *  @{
  70:../../LUFA-Libs/Arduino_LUFA_Bootloader/LUFA/Drivers/USB/Core/AVR8/../AVR8/../AVR8/Endpoint_AVR8.h ****  */
  71:../../LUFA-Libs/Arduino_LUFA_Bootloader/LUFA/Drivers/USB/Core/AVR8/../AVR8/../AVR8/Endpoint_AVR8.h **** 
  72:../../LUFA-Libs/Arduino_LUFA_Bootloader/LUFA/Drivers/USB/Core/AVR8/../AVR8/../AVR8/Endpoint_AVR8.h **** #ifndef __ENDPOINT_AVR8_H__
  73:../../LUFA-Libs/Arduino_LUFA_Bootloader/LUFA/Drivers/USB/Core/AVR8/../AVR8/../AVR8/Endpoint_AVR8.h **** #define __ENDPOINT_AVR8_H__
  74:../../LUFA-Libs/Arduino_LUFA_Bootloader/LUFA/Drivers/USB/Core/AVR8/../AVR8/../AVR8/Endpoint_AVR8.h **** 
  75:../../LUFA-Libs/Arduino_LUFA_Bootloader/LUFA/Drivers/USB/Core/AVR8/../AVR8/../AVR8/Endpoint_AVR8.h **** 	/* Includes: */
  76:../../LUFA-Libs/Arduino_LUFA_Bootloader/LUFA/Drivers/USB/Core/AVR8/../AVR8/../AVR8/Endpoint_AVR8.h **** 		#include "../../../../Common/Common.h"
  77:../../LUFA-Libs/Arduino_LUFA_Bootloader/LUFA/Drivers/USB/Core/AVR8/../AVR8/../AVR8/Endpoint_AVR8.h **** 		#include "../USBTask.h"
  78:../../LUFA-Libs/Arduino_LUFA_Bootloader/LUFA/Drivers/USB/Core/AVR8/../AVR8/../AVR8/Endpoint_AVR8.h **** 		#include "../USBInterrupt.h"
  79:../../LUFA-Libs/Arduino_LUFA_Bootloader/LUFA/Drivers/USB/Core/AVR8/../AVR8/../AVR8/Endpoint_AVR8.h **** 
  80:../../LUFA-Libs/Arduino_LUFA_Bootloader/LUFA/Drivers/USB/Core/AVR8/../AVR8/../AVR8/Endpoint_AVR8.h **** 	/* Enable C linkage for C++ Compilers: */
  81:../../LUFA-Libs/Arduino_LUFA_Bootloader/LUFA/Drivers/USB/Core/AVR8/../AVR8/../AVR8/Endpoint_AVR8.h **** 		#if defined(__cplusplus)
  82:../../LUFA-Libs/Arduino_LUFA_Bootloader/LUFA/Drivers/USB/Core/AVR8/../AVR8/../AVR8/Endpoint_AVR8.h **** 			extern "C" {
  83:../../LUFA-Libs/Arduino_LUFA_Bootloader/LUFA/Drivers/USB/Core/AVR8/../AVR8/../AVR8/Endpoint_AVR8.h **** 		#endif
  84:../../LUFA-Libs/Arduino_LUFA_Bootloader/LUFA/Drivers/USB/Core/AVR8/../AVR8/../AVR8/Endpoint_AVR8.h **** 
  85:../../LUFA-Libs/Arduino_LUFA_Bootloader/LUFA/Drivers/USB/Core/AVR8/../AVR8/../AVR8/Endpoint_AVR8.h **** 	/* Preprocessor Checks: */
  86:../../LUFA-Libs/Arduino_LUFA_Bootloader/LUFA/Drivers/USB/Core/AVR8/../AVR8/../AVR8/Endpoint_AVR8.h **** 		#if !defined(__INCLUDE_FROM_USB_DRIVER)
  87:../../LUFA-Libs/Arduino_LUFA_Bootloader/LUFA/Drivers/USB/Core/AVR8/../AVR8/../AVR8/Endpoint_AVR8.h **** 			#error Do not include this file directly. Include LUFA/Drivers/USB/USB.h instead.
  88:../../LUFA-Libs/Arduino_LUFA_Bootloader/LUFA/Drivers/USB/Core/AVR8/../AVR8/../AVR8/Endpoint_AVR8.h **** 		#endif
  89:../../LUFA-Libs/Arduino_LUFA_Bootloader/LUFA/Drivers/USB/Core/AVR8/../AVR8/../AVR8/Endpoint_AVR8.h **** 
  90:../../LUFA-Libs/Arduino_LUFA_Bootloader/LUFA/Drivers/USB/Core/AVR8/../AVR8/../AVR8/Endpoint_AVR8.h **** 	/* Private Interface - For use in library only: */
  91:../../LUFA-Libs/Arduino_LUFA_Bootloader/LUFA/Drivers/USB/Core/AVR8/../AVR8/../AVR8/Endpoint_AVR8.h **** 	#if !defined(__DOXYGEN__)
  92:../../LUFA-Libs/Arduino_LUFA_Bootloader/LUFA/Drivers/USB/Core/AVR8/../AVR8/../AVR8/Endpoint_AVR8.h **** 		/* Macros: */
  93:../../LUFA-Libs/Arduino_LUFA_Bootloader/LUFA/Drivers/USB/Core/AVR8/../AVR8/../AVR8/Endpoint_AVR8.h **** 			#define _ENDPOINT_GET_MAXSIZE(EPIndex)         _ENDPOINT_GET_MAXSIZE2(ENDPOINT_DETAILS_EP ## EPI
  94:../../LUFA-Libs/Arduino_LUFA_Bootloader/LUFA/Drivers/USB/Core/AVR8/../AVR8/../AVR8/Endpoint_AVR8.h **** 			#define _ENDPOINT_GET_MAXSIZE2(EPDetails)      _ENDPOINT_GET_MAXSIZE3(EPDetails)
  95:../../LUFA-Libs/Arduino_LUFA_Bootloader/LUFA/Drivers/USB/Core/AVR8/../AVR8/../AVR8/Endpoint_AVR8.h **** 			#define _ENDPOINT_GET_MAXSIZE3(MaxSize, Banks) (MaxSize)
  96:../../LUFA-Libs/Arduino_LUFA_Bootloader/LUFA/Drivers/USB/Core/AVR8/../AVR8/../AVR8/Endpoint_AVR8.h **** 
  97:../../LUFA-Libs/Arduino_LUFA_Bootloader/LUFA/Drivers/USB/Core/AVR8/../AVR8/../AVR8/Endpoint_AVR8.h **** 			#define _ENDPOINT_GET_BANKS(EPIndex)           _ENDPOINT_GET_BANKS2(ENDPOINT_DETAILS_EP ## EPInd
  98:../../LUFA-Libs/Arduino_LUFA_Bootloader/LUFA/Drivers/USB/Core/AVR8/../AVR8/../AVR8/Endpoint_AVR8.h **** 			#define _ENDPOINT_GET_BANKS2(EPDetails)        _ENDPOINT_GET_BANKS3(EPDetails)
  99:../../LUFA-Libs/Arduino_LUFA_Bootloader/LUFA/Drivers/USB/Core/AVR8/../AVR8/../AVR8/Endpoint_AVR8.h **** 			#define _ENDPOINT_GET_BANKS3(MaxSize, Banks)   (Banks)
 100:../../LUFA-Libs/Arduino_LUFA_Bootloader/LUFA/Drivers/USB/Core/AVR8/../AVR8/../AVR8/Endpoint_AVR8.h **** 
 101:../../LUFA-Libs/Arduino_LUFA_Bootloader/LUFA/Drivers/USB/Core/AVR8/../AVR8/../AVR8/Endpoint_AVR8.h **** 			#if defined(USB_SERIES_4_AVR) || defined(USB_SERIES_6_AVR) || defined(USB_SERIES_7_AVR)
 102:../../LUFA-Libs/Arduino_LUFA_Bootloader/LUFA/Drivers/USB/Core/AVR8/../AVR8/../AVR8/Endpoint_AVR8.h **** 				#define ENDPOINT_DETAILS_MAXEP             7
 103:../../LUFA-Libs/Arduino_LUFA_Bootloader/LUFA/Drivers/USB/Core/AVR8/../AVR8/../AVR8/Endpoint_AVR8.h **** 
 104:../../LUFA-Libs/Arduino_LUFA_Bootloader/LUFA/Drivers/USB/Core/AVR8/../AVR8/../AVR8/Endpoint_AVR8.h **** 				#define ENDPOINT_DETAILS_EP0               64,  1
 105:../../LUFA-Libs/Arduino_LUFA_Bootloader/LUFA/Drivers/USB/Core/AVR8/../AVR8/../AVR8/Endpoint_AVR8.h **** 				#define ENDPOINT_DETAILS_EP1               256, 2
 106:../../LUFA-Libs/Arduino_LUFA_Bootloader/LUFA/Drivers/USB/Core/AVR8/../AVR8/../AVR8/Endpoint_AVR8.h **** 				#define ENDPOINT_DETAILS_EP2               64,  2
 107:../../LUFA-Libs/Arduino_LUFA_Bootloader/LUFA/Drivers/USB/Core/AVR8/../AVR8/../AVR8/Endpoint_AVR8.h **** 				#define ENDPOINT_DETAILS_EP3               64,  2
 108:../../LUFA-Libs/Arduino_LUFA_Bootloader/LUFA/Drivers/USB/Core/AVR8/../AVR8/../AVR8/Endpoint_AVR8.h **** 				#define ENDPOINT_DETAILS_EP4               64,  2
 109:../../LUFA-Libs/Arduino_LUFA_Bootloader/LUFA/Drivers/USB/Core/AVR8/../AVR8/../AVR8/Endpoint_AVR8.h **** 				#define ENDPOINT_DETAILS_EP5               64,  2
 110:../../LUFA-Libs/Arduino_LUFA_Bootloader/LUFA/Drivers/USB/Core/AVR8/../AVR8/../AVR8/Endpoint_AVR8.h **** 				#define ENDPOINT_DETAILS_EP6               64,  2
 111:../../LUFA-Libs/Arduino_LUFA_Bootloader/LUFA/Drivers/USB/Core/AVR8/../AVR8/../AVR8/Endpoint_AVR8.h **** 			#else
 112:../../LUFA-Libs/Arduino_LUFA_Bootloader/LUFA/Drivers/USB/Core/AVR8/../AVR8/../AVR8/Endpoint_AVR8.h **** 				#define ENDPOINT_DETAILS_MAXEP             5
 113:../../LUFA-Libs/Arduino_LUFA_Bootloader/LUFA/Drivers/USB/Core/AVR8/../AVR8/../AVR8/Endpoint_AVR8.h **** 
 114:../../LUFA-Libs/Arduino_LUFA_Bootloader/LUFA/Drivers/USB/Core/AVR8/../AVR8/../AVR8/Endpoint_AVR8.h **** 				#define ENDPOINT_DETAILS_EP0               64,  1
 115:../../LUFA-Libs/Arduino_LUFA_Bootloader/LUFA/Drivers/USB/Core/AVR8/../AVR8/../AVR8/Endpoint_AVR8.h **** 				#define ENDPOINT_DETAILS_EP1               64,  1
 116:../../LUFA-Libs/Arduino_LUFA_Bootloader/LUFA/Drivers/USB/Core/AVR8/../AVR8/../AVR8/Endpoint_AVR8.h **** 				#define ENDPOINT_DETAILS_EP2               64,  1
 117:../../LUFA-Libs/Arduino_LUFA_Bootloader/LUFA/Drivers/USB/Core/AVR8/../AVR8/../AVR8/Endpoint_AVR8.h **** 				#define ENDPOINT_DETAILS_EP3               64,  2
 118:../../LUFA-Libs/Arduino_LUFA_Bootloader/LUFA/Drivers/USB/Core/AVR8/../AVR8/../AVR8/Endpoint_AVR8.h **** 				#define ENDPOINT_DETAILS_EP4               64,  2
 119:../../LUFA-Libs/Arduino_LUFA_Bootloader/LUFA/Drivers/USB/Core/AVR8/../AVR8/../AVR8/Endpoint_AVR8.h **** 			#endif
 120:../../LUFA-Libs/Arduino_LUFA_Bootloader/LUFA/Drivers/USB/Core/AVR8/../AVR8/../AVR8/Endpoint_AVR8.h **** 
 121:../../LUFA-Libs/Arduino_LUFA_Bootloader/LUFA/Drivers/USB/Core/AVR8/../AVR8/../AVR8/Endpoint_AVR8.h **** 		/* Inline Functions: */
 122:../../LUFA-Libs/Arduino_LUFA_Bootloader/LUFA/Drivers/USB/Core/AVR8/../AVR8/../AVR8/Endpoint_AVR8.h **** 			static inline uint8_t Endpoint_BytesToEPSizeMask(const uint16_t Bytes) ATTR_WARN_UNUSED_RESULT A
 123:../../LUFA-Libs/Arduino_LUFA_Bootloader/LUFA/Drivers/USB/Core/AVR8/../AVR8/../AVR8/Endpoint_AVR8.h **** 			                                                                       ATTR_ALWAYS_INLINE;
 124:../../LUFA-Libs/Arduino_LUFA_Bootloader/LUFA/Drivers/USB/Core/AVR8/../AVR8/../AVR8/Endpoint_AVR8.h **** 			static inline uint8_t Endpoint_BytesToEPSizeMask(const uint16_t Bytes)
 125:../../LUFA-Libs/Arduino_LUFA_Bootloader/LUFA/Drivers/USB/Core/AVR8/../AVR8/../AVR8/Endpoint_AVR8.h **** 			{
 126:../../LUFA-Libs/Arduino_LUFA_Bootloader/LUFA/Drivers/USB/Core/AVR8/../AVR8/../AVR8/Endpoint_AVR8.h **** 				uint8_t  MaskVal    = 0;
 127:../../LUFA-Libs/Arduino_LUFA_Bootloader/LUFA/Drivers/USB/Core/AVR8/../AVR8/../AVR8/Endpoint_AVR8.h **** 				uint16_t CheckBytes = 8;
 128:../../LUFA-Libs/Arduino_LUFA_Bootloader/LUFA/Drivers/USB/Core/AVR8/../AVR8/../AVR8/Endpoint_AVR8.h **** 
 129:../../LUFA-Libs/Arduino_LUFA_Bootloader/LUFA/Drivers/USB/Core/AVR8/../AVR8/../AVR8/Endpoint_AVR8.h **** 				while (CheckBytes < Bytes)
 130:../../LUFA-Libs/Arduino_LUFA_Bootloader/LUFA/Drivers/USB/Core/AVR8/../AVR8/../AVR8/Endpoint_AVR8.h **** 				{
 131:../../LUFA-Libs/Arduino_LUFA_Bootloader/LUFA/Drivers/USB/Core/AVR8/../AVR8/../AVR8/Endpoint_AVR8.h **** 					MaskVal++;
 132:../../LUFA-Libs/Arduino_LUFA_Bootloader/LUFA/Drivers/USB/Core/AVR8/../AVR8/../AVR8/Endpoint_AVR8.h **** 					CheckBytes <<= 1;
 133:../../LUFA-Libs/Arduino_LUFA_Bootloader/LUFA/Drivers/USB/Core/AVR8/../AVR8/../AVR8/Endpoint_AVR8.h **** 				}
 134:../../LUFA-Libs/Arduino_LUFA_Bootloader/LUFA/Drivers/USB/Core/AVR8/../AVR8/../AVR8/Endpoint_AVR8.h **** 
 135:../../LUFA-Libs/Arduino_LUFA_Bootloader/LUFA/Drivers/USB/Core/AVR8/../AVR8/../AVR8/Endpoint_AVR8.h **** 				return (MaskVal << EPSIZE0);
 136:../../LUFA-Libs/Arduino_LUFA_Bootloader/LUFA/Drivers/USB/Core/AVR8/../AVR8/../AVR8/Endpoint_AVR8.h **** 			}
 137:../../LUFA-Libs/Arduino_LUFA_Bootloader/LUFA/Drivers/USB/Core/AVR8/../AVR8/../AVR8/Endpoint_AVR8.h **** 
 138:../../LUFA-Libs/Arduino_LUFA_Bootloader/LUFA/Drivers/USB/Core/AVR8/../AVR8/../AVR8/Endpoint_AVR8.h **** 		/* Function Prototypes: */
 139:../../LUFA-Libs/Arduino_LUFA_Bootloader/LUFA/Drivers/USB/Core/AVR8/../AVR8/../AVR8/Endpoint_AVR8.h **** 			void Endpoint_ClearEndpoints(void);
 140:../../LUFA-Libs/Arduino_LUFA_Bootloader/LUFA/Drivers/USB/Core/AVR8/../AVR8/../AVR8/Endpoint_AVR8.h **** 			bool Endpoint_ConfigureEndpoint_Prv(const uint8_t Number,
 141:../../LUFA-Libs/Arduino_LUFA_Bootloader/LUFA/Drivers/USB/Core/AVR8/../AVR8/../AVR8/Endpoint_AVR8.h **** 			                                    const uint8_t UECFG0XData,
 142:../../LUFA-Libs/Arduino_LUFA_Bootloader/LUFA/Drivers/USB/Core/AVR8/../AVR8/../AVR8/Endpoint_AVR8.h **** 			                                    const uint8_t UECFG1XData);
 143:../../LUFA-Libs/Arduino_LUFA_Bootloader/LUFA/Drivers/USB/Core/AVR8/../AVR8/../AVR8/Endpoint_AVR8.h **** 
 144:../../LUFA-Libs/Arduino_LUFA_Bootloader/LUFA/Drivers/USB/Core/AVR8/../AVR8/../AVR8/Endpoint_AVR8.h **** 	#endif
 145:../../LUFA-Libs/Arduino_LUFA_Bootloader/LUFA/Drivers/USB/Core/AVR8/../AVR8/../AVR8/Endpoint_AVR8.h **** 
 146:../../LUFA-Libs/Arduino_LUFA_Bootloader/LUFA/Drivers/USB/Core/AVR8/../AVR8/../AVR8/Endpoint_AVR8.h **** 	/* Public Interface - May be used in end-application: */
 147:../../LUFA-Libs/Arduino_LUFA_Bootloader/LUFA/Drivers/USB/Core/AVR8/../AVR8/../AVR8/Endpoint_AVR8.h **** 		/* Macros: */			
 148:../../LUFA-Libs/Arduino_LUFA_Bootloader/LUFA/Drivers/USB/Core/AVR8/../AVR8/../AVR8/Endpoint_AVR8.h **** 			/** \name Endpoint Bank Mode Masks */
 149:../../LUFA-Libs/Arduino_LUFA_Bootloader/LUFA/Drivers/USB/Core/AVR8/../AVR8/../AVR8/Endpoint_AVR8.h **** 			//@{
 150:../../LUFA-Libs/Arduino_LUFA_Bootloader/LUFA/Drivers/USB/Core/AVR8/../AVR8/../AVR8/Endpoint_AVR8.h **** 			/** Mask for the bank mode selection for the \ref Endpoint_ConfigureEndpoint() macro. This indic
 151:../../LUFA-Libs/Arduino_LUFA_Bootloader/LUFA/Drivers/USB/Core/AVR8/../AVR8/../AVR8/Endpoint_AVR8.h **** 			 *  that the endpoint should have one single bank, which requires less USB FIFO memory but resul
 152:../../LUFA-Libs/Arduino_LUFA_Bootloader/LUFA/Drivers/USB/Core/AVR8/../AVR8/../AVR8/Endpoint_AVR8.h **** 			 *  in slower transfers as only one USB device (the AVR or the host) can access the endpoint's
 153:../../LUFA-Libs/Arduino_LUFA_Bootloader/LUFA/Drivers/USB/Core/AVR8/../AVR8/../AVR8/Endpoint_AVR8.h **** 			 *  bank at the one time.
 154:../../LUFA-Libs/Arduino_LUFA_Bootloader/LUFA/Drivers/USB/Core/AVR8/../AVR8/../AVR8/Endpoint_AVR8.h **** 			 */
 155:../../LUFA-Libs/Arduino_LUFA_Bootloader/LUFA/Drivers/USB/Core/AVR8/../AVR8/../AVR8/Endpoint_AVR8.h **** 			#define ENDPOINT_BANK_SINGLE                    (0 << EPBK0)
 156:../../LUFA-Libs/Arduino_LUFA_Bootloader/LUFA/Drivers/USB/Core/AVR8/../AVR8/../AVR8/Endpoint_AVR8.h **** 
 157:../../LUFA-Libs/Arduino_LUFA_Bootloader/LUFA/Drivers/USB/Core/AVR8/../AVR8/../AVR8/Endpoint_AVR8.h **** 			/** Mask for the bank mode selection for the \ref Endpoint_ConfigureEndpoint() macro. This indic
 158:../../LUFA-Libs/Arduino_LUFA_Bootloader/LUFA/Drivers/USB/Core/AVR8/../AVR8/../AVR8/Endpoint_AVR8.h **** 			 *  that the endpoint should have two banks, which requires more USB FIFO memory but results
 159:../../LUFA-Libs/Arduino_LUFA_Bootloader/LUFA/Drivers/USB/Core/AVR8/../AVR8/../AVR8/Endpoint_AVR8.h **** 			 *  in faster transfers as one USB device (the AVR or the host) can access one bank while the ot
 160:../../LUFA-Libs/Arduino_LUFA_Bootloader/LUFA/Drivers/USB/Core/AVR8/../AVR8/../AVR8/Endpoint_AVR8.h **** 			 *  accesses the second bank.
 161:../../LUFA-Libs/Arduino_LUFA_Bootloader/LUFA/Drivers/USB/Core/AVR8/../AVR8/../AVR8/Endpoint_AVR8.h **** 			 */
 162:../../LUFA-Libs/Arduino_LUFA_Bootloader/LUFA/Drivers/USB/Core/AVR8/../AVR8/../AVR8/Endpoint_AVR8.h **** 			#define ENDPOINT_BANK_DOUBLE                    (1 << EPBK0)
 163:../../LUFA-Libs/Arduino_LUFA_Bootloader/LUFA/Drivers/USB/Core/AVR8/../AVR8/../AVR8/Endpoint_AVR8.h **** 			//@}
 164:../../LUFA-Libs/Arduino_LUFA_Bootloader/LUFA/Drivers/USB/Core/AVR8/../AVR8/../AVR8/Endpoint_AVR8.h **** 
 165:../../LUFA-Libs/Arduino_LUFA_Bootloader/LUFA/Drivers/USB/Core/AVR8/../AVR8/../AVR8/Endpoint_AVR8.h **** 			#if (!defined(FIXED_CONTROL_ENDPOINT_SIZE) || defined(__DOXYGEN__))
 166:../../LUFA-Libs/Arduino_LUFA_Bootloader/LUFA/Drivers/USB/Core/AVR8/../AVR8/../AVR8/Endpoint_AVR8.h **** 				/** Default size of the default control endpoint's bank, until altered by the control endpoint 
 167:../../LUFA-Libs/Arduino_LUFA_Bootloader/LUFA/Drivers/USB/Core/AVR8/../AVR8/../AVR8/Endpoint_AVR8.h **** 				 *  value in the device descriptor. Not available if the \c FIXED_CONTROL_ENDPOINT_SIZE token i
 168:../../LUFA-Libs/Arduino_LUFA_Bootloader/LUFA/Drivers/USB/Core/AVR8/../AVR8/../AVR8/Endpoint_AVR8.h **** 				 */
 169:../../LUFA-Libs/Arduino_LUFA_Bootloader/LUFA/Drivers/USB/Core/AVR8/../AVR8/../AVR8/Endpoint_AVR8.h **** 				#define ENDPOINT_CONTROLEP_DEFAULT_SIZE     8
 170:../../LUFA-Libs/Arduino_LUFA_Bootloader/LUFA/Drivers/USB/Core/AVR8/../AVR8/../AVR8/Endpoint_AVR8.h **** 			#endif
 171:../../LUFA-Libs/Arduino_LUFA_Bootloader/LUFA/Drivers/USB/Core/AVR8/../AVR8/../AVR8/Endpoint_AVR8.h **** 
 172:../../LUFA-Libs/Arduino_LUFA_Bootloader/LUFA/Drivers/USB/Core/AVR8/../AVR8/../AVR8/Endpoint_AVR8.h **** 			/** Retrieves the maximum bank size in bytes of a given endpoint.
 173:../../LUFA-Libs/Arduino_LUFA_Bootloader/LUFA/Drivers/USB/Core/AVR8/../AVR8/../AVR8/Endpoint_AVR8.h **** 			 *
 174:../../LUFA-Libs/Arduino_LUFA_Bootloader/LUFA/Drivers/USB/Core/AVR8/../AVR8/../AVR8/Endpoint_AVR8.h **** 			 *  \note This macro will only work correctly on endpoint indexes that are compile-time constant
 175:../../LUFA-Libs/Arduino_LUFA_Bootloader/LUFA/Drivers/USB/Core/AVR8/../AVR8/../AVR8/Endpoint_AVR8.h **** 			 *        defined by the preprocessor.
 176:../../LUFA-Libs/Arduino_LUFA_Bootloader/LUFA/Drivers/USB/Core/AVR8/../AVR8/../AVR8/Endpoint_AVR8.h **** 			 *
 177:../../LUFA-Libs/Arduino_LUFA_Bootloader/LUFA/Drivers/USB/Core/AVR8/../AVR8/../AVR8/Endpoint_AVR8.h **** 			 *  \param[in] EPIndex  Endpoint number, a value between 0 and (\ref ENDPOINT_TOTAL_ENDPOINTS - 
 178:../../LUFA-Libs/Arduino_LUFA_Bootloader/LUFA/Drivers/USB/Core/AVR8/../AVR8/../AVR8/Endpoint_AVR8.h **** 			 */
 179:../../LUFA-Libs/Arduino_LUFA_Bootloader/LUFA/Drivers/USB/Core/AVR8/../AVR8/../AVR8/Endpoint_AVR8.h **** 			#define ENDPOINT_MAX_SIZE(EPIndex)              _ENDPOINT_GET_MAXSIZE(EPIndex)
 180:../../LUFA-Libs/Arduino_LUFA_Bootloader/LUFA/Drivers/USB/Core/AVR8/../AVR8/../AVR8/Endpoint_AVR8.h **** 
 181:../../LUFA-Libs/Arduino_LUFA_Bootloader/LUFA/Drivers/USB/Core/AVR8/../AVR8/../AVR8/Endpoint_AVR8.h **** 			/** Retrieves the total number of banks supported by the given endpoint.
 182:../../LUFA-Libs/Arduino_LUFA_Bootloader/LUFA/Drivers/USB/Core/AVR8/../AVR8/../AVR8/Endpoint_AVR8.h **** 			 *
 183:../../LUFA-Libs/Arduino_LUFA_Bootloader/LUFA/Drivers/USB/Core/AVR8/../AVR8/../AVR8/Endpoint_AVR8.h **** 			 *  \note This macro will only work correctly on endpoint indexes that are compile-time constant
 184:../../LUFA-Libs/Arduino_LUFA_Bootloader/LUFA/Drivers/USB/Core/AVR8/../AVR8/../AVR8/Endpoint_AVR8.h **** 			 *        defined by the preprocessor.
 185:../../LUFA-Libs/Arduino_LUFA_Bootloader/LUFA/Drivers/USB/Core/AVR8/../AVR8/../AVR8/Endpoint_AVR8.h **** 			 *
 186:../../LUFA-Libs/Arduino_LUFA_Bootloader/LUFA/Drivers/USB/Core/AVR8/../AVR8/../AVR8/Endpoint_AVR8.h **** 			 *  \param[in] EPIndex  Endpoint number, a value between 0 and (\ref ENDPOINT_TOTAL_ENDPOINTS - 
 187:../../LUFA-Libs/Arduino_LUFA_Bootloader/LUFA/Drivers/USB/Core/AVR8/../AVR8/../AVR8/Endpoint_AVR8.h **** 			 */
 188:../../LUFA-Libs/Arduino_LUFA_Bootloader/LUFA/Drivers/USB/Core/AVR8/../AVR8/../AVR8/Endpoint_AVR8.h **** 			#define ENDPOINT_BANKS_SUPPORTED(EPIndex)       _ENDPOINT_GET_BANKS(EPIndex)
 189:../../LUFA-Libs/Arduino_LUFA_Bootloader/LUFA/Drivers/USB/Core/AVR8/../AVR8/../AVR8/Endpoint_AVR8.h **** 
 190:../../LUFA-Libs/Arduino_LUFA_Bootloader/LUFA/Drivers/USB/Core/AVR8/../AVR8/../AVR8/Endpoint_AVR8.h **** 			#if !defined(CONTROL_ONLY_DEVICE) || defined(__DOXYGEN__)
 191:../../LUFA-Libs/Arduino_LUFA_Bootloader/LUFA/Drivers/USB/Core/AVR8/../AVR8/../AVR8/Endpoint_AVR8.h **** 				/** Total number of endpoints (including the default control endpoint at address 0) which may
 192:../../LUFA-Libs/Arduino_LUFA_Bootloader/LUFA/Drivers/USB/Core/AVR8/../AVR8/../AVR8/Endpoint_AVR8.h **** 				 *  be used in the device. Different USB AVR models support different amounts of endpoints,
 193:../../LUFA-Libs/Arduino_LUFA_Bootloader/LUFA/Drivers/USB/Core/AVR8/../AVR8/../AVR8/Endpoint_AVR8.h **** 				 *  this value reflects the maximum number of endpoints for the currently selected AVR model.
 194:../../LUFA-Libs/Arduino_LUFA_Bootloader/LUFA/Drivers/USB/Core/AVR8/../AVR8/../AVR8/Endpoint_AVR8.h **** 				 */
 195:../../LUFA-Libs/Arduino_LUFA_Bootloader/LUFA/Drivers/USB/Core/AVR8/../AVR8/../AVR8/Endpoint_AVR8.h **** 				#define ENDPOINT_TOTAL_ENDPOINTS            ENDPOINT_DETAILS_MAXEP
 196:../../LUFA-Libs/Arduino_LUFA_Bootloader/LUFA/Drivers/USB/Core/AVR8/../AVR8/../AVR8/Endpoint_AVR8.h **** 			#else
 197:../../LUFA-Libs/Arduino_LUFA_Bootloader/LUFA/Drivers/USB/Core/AVR8/../AVR8/../AVR8/Endpoint_AVR8.h **** 				#define ENDPOINT_TOTAL_ENDPOINTS            1
 198:../../LUFA-Libs/Arduino_LUFA_Bootloader/LUFA/Drivers/USB/Core/AVR8/../AVR8/../AVR8/Endpoint_AVR8.h **** 			#endif
 199:../../LUFA-Libs/Arduino_LUFA_Bootloader/LUFA/Drivers/USB/Core/AVR8/../AVR8/../AVR8/Endpoint_AVR8.h **** 
 200:../../LUFA-Libs/Arduino_LUFA_Bootloader/LUFA/Drivers/USB/Core/AVR8/../AVR8/../AVR8/Endpoint_AVR8.h **** 		/* Enums: */
 201:../../LUFA-Libs/Arduino_LUFA_Bootloader/LUFA/Drivers/USB/Core/AVR8/../AVR8/../AVR8/Endpoint_AVR8.h **** 			/** Enum for the possible error return codes of the \ref Endpoint_WaitUntilReady() function.
 202:../../LUFA-Libs/Arduino_LUFA_Bootloader/LUFA/Drivers/USB/Core/AVR8/../AVR8/../AVR8/Endpoint_AVR8.h **** 			 *
 203:../../LUFA-Libs/Arduino_LUFA_Bootloader/LUFA/Drivers/USB/Core/AVR8/../AVR8/../AVR8/Endpoint_AVR8.h **** 			 *  \ingroup Group_EndpointRW_AVR8
 204:../../LUFA-Libs/Arduino_LUFA_Bootloader/LUFA/Drivers/USB/Core/AVR8/../AVR8/../AVR8/Endpoint_AVR8.h **** 			 */
 205:../../LUFA-Libs/Arduino_LUFA_Bootloader/LUFA/Drivers/USB/Core/AVR8/../AVR8/../AVR8/Endpoint_AVR8.h **** 			enum Endpoint_WaitUntilReady_ErrorCodes_t
 206:../../LUFA-Libs/Arduino_LUFA_Bootloader/LUFA/Drivers/USB/Core/AVR8/../AVR8/../AVR8/Endpoint_AVR8.h **** 			{
 207:../../LUFA-Libs/Arduino_LUFA_Bootloader/LUFA/Drivers/USB/Core/AVR8/../AVR8/../AVR8/Endpoint_AVR8.h **** 				ENDPOINT_READYWAIT_NoError                 = 0, /**< Endpoint is ready for next packet, no erro
 208:../../LUFA-Libs/Arduino_LUFA_Bootloader/LUFA/Drivers/USB/Core/AVR8/../AVR8/../AVR8/Endpoint_AVR8.h **** 				ENDPOINT_READYWAIT_EndpointStalled         = 1, /**< The endpoint was stalled during the stream
 209:../../LUFA-Libs/Arduino_LUFA_Bootloader/LUFA/Drivers/USB/Core/AVR8/../AVR8/../AVR8/Endpoint_AVR8.h **** 				                                                 *   transfer by the host or device.
 210:../../LUFA-Libs/Arduino_LUFA_Bootloader/LUFA/Drivers/USB/Core/AVR8/../AVR8/../AVR8/Endpoint_AVR8.h **** 				                                                 */
 211:../../LUFA-Libs/Arduino_LUFA_Bootloader/LUFA/Drivers/USB/Core/AVR8/../AVR8/../AVR8/Endpoint_AVR8.h **** 				ENDPOINT_READYWAIT_DeviceDisconnected      = 2,	/**< Device was disconnected from the host whil
 212:../../LUFA-Libs/Arduino_LUFA_Bootloader/LUFA/Drivers/USB/Core/AVR8/../AVR8/../AVR8/Endpoint_AVR8.h **** 				                                                 *   waiting for the endpoint to become ready.
 213:../../LUFA-Libs/Arduino_LUFA_Bootloader/LUFA/Drivers/USB/Core/AVR8/../AVR8/../AVR8/Endpoint_AVR8.h **** 				                                                 */
 214:../../LUFA-Libs/Arduino_LUFA_Bootloader/LUFA/Drivers/USB/Core/AVR8/../AVR8/../AVR8/Endpoint_AVR8.h **** 				ENDPOINT_READYWAIT_BusSuspended            = 3, /**< The USB bus has been suspended by the host
 215:../../LUFA-Libs/Arduino_LUFA_Bootloader/LUFA/Drivers/USB/Core/AVR8/../AVR8/../AVR8/Endpoint_AVR8.h **** 				                                                 *   no USB endpoint traffic can occur until th
 216:../../LUFA-Libs/Arduino_LUFA_Bootloader/LUFA/Drivers/USB/Core/AVR8/../AVR8/../AVR8/Endpoint_AVR8.h **** 				                                                 *   has resumed.
 217:../../LUFA-Libs/Arduino_LUFA_Bootloader/LUFA/Drivers/USB/Core/AVR8/../AVR8/../AVR8/Endpoint_AVR8.h **** 				                                                 */
 218:../../LUFA-Libs/Arduino_LUFA_Bootloader/LUFA/Drivers/USB/Core/AVR8/../AVR8/../AVR8/Endpoint_AVR8.h **** 				ENDPOINT_READYWAIT_Timeout                 = 4, /**< The host failed to accept or send the next
 219:../../LUFA-Libs/Arduino_LUFA_Bootloader/LUFA/Drivers/USB/Core/AVR8/../AVR8/../AVR8/Endpoint_AVR8.h **** 				                                                 *   within the software timeout period set by 
 220:../../LUFA-Libs/Arduino_LUFA_Bootloader/LUFA/Drivers/USB/Core/AVR8/../AVR8/../AVR8/Endpoint_AVR8.h **** 				                                                 *   \ref USB_STREAM_TIMEOUT_MS macro.
 221:../../LUFA-Libs/Arduino_LUFA_Bootloader/LUFA/Drivers/USB/Core/AVR8/../AVR8/../AVR8/Endpoint_AVR8.h **** 				                                                 */
 222:../../LUFA-Libs/Arduino_LUFA_Bootloader/LUFA/Drivers/USB/Core/AVR8/../AVR8/../AVR8/Endpoint_AVR8.h **** 			};
 223:../../LUFA-Libs/Arduino_LUFA_Bootloader/LUFA/Drivers/USB/Core/AVR8/../AVR8/../AVR8/Endpoint_AVR8.h **** 
 224:../../LUFA-Libs/Arduino_LUFA_Bootloader/LUFA/Drivers/USB/Core/AVR8/../AVR8/../AVR8/Endpoint_AVR8.h **** 		/* Inline Functions: */
 225:../../LUFA-Libs/Arduino_LUFA_Bootloader/LUFA/Drivers/USB/Core/AVR8/../AVR8/../AVR8/Endpoint_AVR8.h **** 			/** Configures the specified endpoint number with the given endpoint type, direction, bank size
 226:../../LUFA-Libs/Arduino_LUFA_Bootloader/LUFA/Drivers/USB/Core/AVR8/../AVR8/../AVR8/Endpoint_AVR8.h **** 			 *  and banking mode. Once configured, the endpoint may be read from or written to, depending
 227:../../LUFA-Libs/Arduino_LUFA_Bootloader/LUFA/Drivers/USB/Core/AVR8/../AVR8/../AVR8/Endpoint_AVR8.h **** 			 *  on its direction.
 228:../../LUFA-Libs/Arduino_LUFA_Bootloader/LUFA/Drivers/USB/Core/AVR8/../AVR8/../AVR8/Endpoint_AVR8.h **** 			 *
 229:../../LUFA-Libs/Arduino_LUFA_Bootloader/LUFA/Drivers/USB/Core/AVR8/../AVR8/../AVR8/Endpoint_AVR8.h **** 			 *  \param[in] Number     Endpoint number to configure. This must be more than 0 and less than
 230:../../LUFA-Libs/Arduino_LUFA_Bootloader/LUFA/Drivers/USB/Core/AVR8/../AVR8/../AVR8/Endpoint_AVR8.h **** 			 *                        \ref ENDPOINT_TOTAL_ENDPOINTS.
 231:../../LUFA-Libs/Arduino_LUFA_Bootloader/LUFA/Drivers/USB/Core/AVR8/../AVR8/../AVR8/Endpoint_AVR8.h **** 			 *
 232:../../LUFA-Libs/Arduino_LUFA_Bootloader/LUFA/Drivers/USB/Core/AVR8/../AVR8/../AVR8/Endpoint_AVR8.h **** 			 *  \param[in] Type       Type of endpoint to configure, a \c EP_TYPE_* mask. Not all endpoint t
 233:../../LUFA-Libs/Arduino_LUFA_Bootloader/LUFA/Drivers/USB/Core/AVR8/../AVR8/../AVR8/Endpoint_AVR8.h **** 			 *                        are available on Low Speed USB devices - refer to the USB 2.0 specific
 234:../../LUFA-Libs/Arduino_LUFA_Bootloader/LUFA/Drivers/USB/Core/AVR8/../AVR8/../AVR8/Endpoint_AVR8.h **** 			 *
 235:../../LUFA-Libs/Arduino_LUFA_Bootloader/LUFA/Drivers/USB/Core/AVR8/../AVR8/../AVR8/Endpoint_AVR8.h **** 			 *  \param[in] Direction  Endpoint data direction, either \ref ENDPOINT_DIR_OUT or \ref ENDPOINT
 236:../../LUFA-Libs/Arduino_LUFA_Bootloader/LUFA/Drivers/USB/Core/AVR8/../AVR8/../AVR8/Endpoint_AVR8.h **** 			 *                        All endpoints (except Control type) are unidirectional - data may only
 237:../../LUFA-Libs/Arduino_LUFA_Bootloader/LUFA/Drivers/USB/Core/AVR8/../AVR8/../AVR8/Endpoint_AVR8.h **** 			 *                        from or written to the endpoint bank based on its direction, not both.
 238:../../LUFA-Libs/Arduino_LUFA_Bootloader/LUFA/Drivers/USB/Core/AVR8/../AVR8/../AVR8/Endpoint_AVR8.h **** 			 *
 239:../../LUFA-Libs/Arduino_LUFA_Bootloader/LUFA/Drivers/USB/Core/AVR8/../AVR8/../AVR8/Endpoint_AVR8.h **** 			 *  \param[in] Size       Size of the endpoint's bank, where packets are stored before they are 
 240:../../LUFA-Libs/Arduino_LUFA_Bootloader/LUFA/Drivers/USB/Core/AVR8/../AVR8/../AVR8/Endpoint_AVR8.h **** 			 *                        to the USB host, or after they have been received from the USB host (d
 241:../../LUFA-Libs/Arduino_LUFA_Bootloader/LUFA/Drivers/USB/Core/AVR8/../AVR8/../AVR8/Endpoint_AVR8.h **** 			 *                        the endpoint's data direction). The bank size must indicate the maximu
 242:../../LUFA-Libs/Arduino_LUFA_Bootloader/LUFA/Drivers/USB/Core/AVR8/../AVR8/../AVR8/Endpoint_AVR8.h **** 			 *                        that the endpoint can handle.
 243:../../LUFA-Libs/Arduino_LUFA_Bootloader/LUFA/Drivers/USB/Core/AVR8/../AVR8/../AVR8/Endpoint_AVR8.h **** 			 *
 244:../../LUFA-Libs/Arduino_LUFA_Bootloader/LUFA/Drivers/USB/Core/AVR8/../AVR8/../AVR8/Endpoint_AVR8.h **** 			 *  \param[in] Banks      Number of banks to use for the endpoint being configured, an \c ENDPOI
 245:../../LUFA-Libs/Arduino_LUFA_Bootloader/LUFA/Drivers/USB/Core/AVR8/../AVR8/../AVR8/Endpoint_AVR8.h **** 			 *                        More banks uses more USB DPRAM, but offers better performance. Isochro
 246:../../LUFA-Libs/Arduino_LUFA_Bootloader/LUFA/Drivers/USB/Core/AVR8/../AVR8/../AVR8/Endpoint_AVR8.h **** 			 *                        endpoints <b>must</b> have at least two banks.
 247:../../LUFA-Libs/Arduino_LUFA_Bootloader/LUFA/Drivers/USB/Core/AVR8/../AVR8/../AVR8/Endpoint_AVR8.h **** 			 *
 248:../../LUFA-Libs/Arduino_LUFA_Bootloader/LUFA/Drivers/USB/Core/AVR8/../AVR8/../AVR8/Endpoint_AVR8.h **** 			 *  \note When the \c ORDERED_EP_CONFIG compile time option is used, Endpoints <b>must</b> be co
 249:../../LUFA-Libs/Arduino_LUFA_Bootloader/LUFA/Drivers/USB/Core/AVR8/../AVR8/../AVR8/Endpoint_AVR8.h **** 			 *        ascending order, or bank corruption will occur.
 250:../../LUFA-Libs/Arduino_LUFA_Bootloader/LUFA/Drivers/USB/Core/AVR8/../AVR8/../AVR8/Endpoint_AVR8.h **** 			 *        \n\n
 251:../../LUFA-Libs/Arduino_LUFA_Bootloader/LUFA/Drivers/USB/Core/AVR8/../AVR8/../AVR8/Endpoint_AVR8.h **** 			 *
 252:../../LUFA-Libs/Arduino_LUFA_Bootloader/LUFA/Drivers/USB/Core/AVR8/../AVR8/../AVR8/Endpoint_AVR8.h **** 			 *  \note Different endpoints may have different maximum packet sizes based on the endpoint's in
 253:../../LUFA-Libs/Arduino_LUFA_Bootloader/LUFA/Drivers/USB/Core/AVR8/../AVR8/../AVR8/Endpoint_AVR8.h **** 			 *        the chosen microcontroller model's datasheet to determine the maximum bank size for ea
 254:../../LUFA-Libs/Arduino_LUFA_Bootloader/LUFA/Drivers/USB/Core/AVR8/../AVR8/../AVR8/Endpoint_AVR8.h **** 			 *        \n\n
 255:../../LUFA-Libs/Arduino_LUFA_Bootloader/LUFA/Drivers/USB/Core/AVR8/../AVR8/../AVR8/Endpoint_AVR8.h **** 			 *
 256:../../LUFA-Libs/Arduino_LUFA_Bootloader/LUFA/Drivers/USB/Core/AVR8/../AVR8/../AVR8/Endpoint_AVR8.h **** 			 *  \note The default control endpoint should not be manually configured by the user application
 257:../../LUFA-Libs/Arduino_LUFA_Bootloader/LUFA/Drivers/USB/Core/AVR8/../AVR8/../AVR8/Endpoint_AVR8.h **** 			 *        it is automatically configured by the library internally.
 258:../../LUFA-Libs/Arduino_LUFA_Bootloader/LUFA/Drivers/USB/Core/AVR8/../AVR8/../AVR8/Endpoint_AVR8.h **** 			 *        \n\n
 259:../../LUFA-Libs/Arduino_LUFA_Bootloader/LUFA/Drivers/USB/Core/AVR8/../AVR8/../AVR8/Endpoint_AVR8.h **** 			 *
 260:../../LUFA-Libs/Arduino_LUFA_Bootloader/LUFA/Drivers/USB/Core/AVR8/../AVR8/../AVR8/Endpoint_AVR8.h **** 			 *  \note This routine will automatically select the specified endpoint upon success. Upon failu
 261:../../LUFA-Libs/Arduino_LUFA_Bootloader/LUFA/Drivers/USB/Core/AVR8/../AVR8/../AVR8/Endpoint_AVR8.h **** 			 *        which failed to reconfigure correctly will be selected.
 262:../../LUFA-Libs/Arduino_LUFA_Bootloader/LUFA/Drivers/USB/Core/AVR8/../AVR8/../AVR8/Endpoint_AVR8.h **** 			 *
 263:../../LUFA-Libs/Arduino_LUFA_Bootloader/LUFA/Drivers/USB/Core/AVR8/../AVR8/../AVR8/Endpoint_AVR8.h **** 			 *  \return Boolean \c true if the configuration succeeded, \c false otherwise.
 264:../../LUFA-Libs/Arduino_LUFA_Bootloader/LUFA/Drivers/USB/Core/AVR8/../AVR8/../AVR8/Endpoint_AVR8.h **** 			 */
 265:../../LUFA-Libs/Arduino_LUFA_Bootloader/LUFA/Drivers/USB/Core/AVR8/../AVR8/../AVR8/Endpoint_AVR8.h **** 			static inline bool Endpoint_ConfigureEndpoint(const uint8_t Number,
 266:../../LUFA-Libs/Arduino_LUFA_Bootloader/LUFA/Drivers/USB/Core/AVR8/../AVR8/../AVR8/Endpoint_AVR8.h **** 			                                              const uint8_t Type,
 267:../../LUFA-Libs/Arduino_LUFA_Bootloader/LUFA/Drivers/USB/Core/AVR8/../AVR8/../AVR8/Endpoint_AVR8.h **** 			                                              const uint8_t Direction,
 268:../../LUFA-Libs/Arduino_LUFA_Bootloader/LUFA/Drivers/USB/Core/AVR8/../AVR8/../AVR8/Endpoint_AVR8.h **** 			                                              const uint16_t Size,
 269:../../LUFA-Libs/Arduino_LUFA_Bootloader/LUFA/Drivers/USB/Core/AVR8/../AVR8/../AVR8/Endpoint_AVR8.h **** 			                                              const uint8_t Banks) ATTR_ALWAYS_INLINE;
 270:../../LUFA-Libs/Arduino_LUFA_Bootloader/LUFA/Drivers/USB/Core/AVR8/../AVR8/../AVR8/Endpoint_AVR8.h **** 			static inline bool Endpoint_ConfigureEndpoint(const uint8_t Number,
 271:../../LUFA-Libs/Arduino_LUFA_Bootloader/LUFA/Drivers/USB/Core/AVR8/../AVR8/../AVR8/Endpoint_AVR8.h **** 			                                              const uint8_t Type,
 272:../../LUFA-Libs/Arduino_LUFA_Bootloader/LUFA/Drivers/USB/Core/AVR8/../AVR8/../AVR8/Endpoint_AVR8.h **** 			                                              const uint8_t Direction,
 273:../../LUFA-Libs/Arduino_LUFA_Bootloader/LUFA/Drivers/USB/Core/AVR8/../AVR8/../AVR8/Endpoint_AVR8.h **** 			                                              const uint16_t Size,
 274:../../LUFA-Libs/Arduino_LUFA_Bootloader/LUFA/Drivers/USB/Core/AVR8/../AVR8/../AVR8/Endpoint_AVR8.h **** 			                                              const uint8_t Banks)
 275:../../LUFA-Libs/Arduino_LUFA_Bootloader/LUFA/Drivers/USB/Core/AVR8/../AVR8/../AVR8/Endpoint_AVR8.h **** 			{
 276:../../LUFA-Libs/Arduino_LUFA_Bootloader/LUFA/Drivers/USB/Core/AVR8/../AVR8/../AVR8/Endpoint_AVR8.h **** 				return Endpoint_ConfigureEndpoint_Prv(Number, ((Type << EPTYPE0) | (Direction ? (1 << EPDIR) : 
 277:../../LUFA-Libs/Arduino_LUFA_Bootloader/LUFA/Drivers/USB/Core/AVR8/../AVR8/../AVR8/Endpoint_AVR8.h **** 				                                      ((1 << ALLOC) | Banks | Endpoint_BytesToEPSizeMask(Size))
 278:../../LUFA-Libs/Arduino_LUFA_Bootloader/LUFA/Drivers/USB/Core/AVR8/../AVR8/../AVR8/Endpoint_AVR8.h **** 			}
 279:../../LUFA-Libs/Arduino_LUFA_Bootloader/LUFA/Drivers/USB/Core/AVR8/../AVR8/../AVR8/Endpoint_AVR8.h **** 
 280:../../LUFA-Libs/Arduino_LUFA_Bootloader/LUFA/Drivers/USB/Core/AVR8/../AVR8/../AVR8/Endpoint_AVR8.h **** 			/** Indicates the number of bytes currently stored in the current endpoint's selected bank.
 281:../../LUFA-Libs/Arduino_LUFA_Bootloader/LUFA/Drivers/USB/Core/AVR8/../AVR8/../AVR8/Endpoint_AVR8.h **** 			 *
 282:../../LUFA-Libs/Arduino_LUFA_Bootloader/LUFA/Drivers/USB/Core/AVR8/../AVR8/../AVR8/Endpoint_AVR8.h **** 			 *  \note The return width of this function may differ, depending on the maximum endpoint bank s
 283:../../LUFA-Libs/Arduino_LUFA_Bootloader/LUFA/Drivers/USB/Core/AVR8/../AVR8/../AVR8/Endpoint_AVR8.h **** 			 *        of the selected AVR model.
 284:../../LUFA-Libs/Arduino_LUFA_Bootloader/LUFA/Drivers/USB/Core/AVR8/../AVR8/../AVR8/Endpoint_AVR8.h **** 			 *
 285:../../LUFA-Libs/Arduino_LUFA_Bootloader/LUFA/Drivers/USB/Core/AVR8/../AVR8/../AVR8/Endpoint_AVR8.h **** 			 *  \ingroup Group_EndpointRW_AVR8
 286:../../LUFA-Libs/Arduino_LUFA_Bootloader/LUFA/Drivers/USB/Core/AVR8/../AVR8/../AVR8/Endpoint_AVR8.h **** 			 *
 287:../../LUFA-Libs/Arduino_LUFA_Bootloader/LUFA/Drivers/USB/Core/AVR8/../AVR8/../AVR8/Endpoint_AVR8.h **** 			 *  \return Total number of bytes in the currently selected Endpoint's FIFO buffer.
 288:../../LUFA-Libs/Arduino_LUFA_Bootloader/LUFA/Drivers/USB/Core/AVR8/../AVR8/../AVR8/Endpoint_AVR8.h **** 			 */
 289:../../LUFA-Libs/Arduino_LUFA_Bootloader/LUFA/Drivers/USB/Core/AVR8/../AVR8/../AVR8/Endpoint_AVR8.h **** 			static inline uint16_t Endpoint_BytesInEndpoint(void) ATTR_WARN_UNUSED_RESULT ATTR_ALWAYS_INLINE
 290:../../LUFA-Libs/Arduino_LUFA_Bootloader/LUFA/Drivers/USB/Core/AVR8/../AVR8/../AVR8/Endpoint_AVR8.h **** 			static inline uint16_t Endpoint_BytesInEndpoint(void)
 291:../../LUFA-Libs/Arduino_LUFA_Bootloader/LUFA/Drivers/USB/Core/AVR8/../AVR8/../AVR8/Endpoint_AVR8.h **** 			{
 292:../../LUFA-Libs/Arduino_LUFA_Bootloader/LUFA/Drivers/USB/Core/AVR8/../AVR8/../AVR8/Endpoint_AVR8.h **** 				#if defined(USB_SERIES_6_AVR) || defined(USB_SERIES_7_AVR)
 293:../../LUFA-Libs/Arduino_LUFA_Bootloader/LUFA/Drivers/USB/Core/AVR8/../AVR8/../AVR8/Endpoint_AVR8.h **** 					return UEBCX;
 294:../../LUFA-Libs/Arduino_LUFA_Bootloader/LUFA/Drivers/USB/Core/AVR8/../AVR8/../AVR8/Endpoint_AVR8.h **** 				#elif defined(USB_SERIES_4_AVR)
 295:../../LUFA-Libs/Arduino_LUFA_Bootloader/LUFA/Drivers/USB/Core/AVR8/../AVR8/../AVR8/Endpoint_AVR8.h **** 					return (((uint16_t)UEBCHX << 8) | UEBCLX);
 296:../../LUFA-Libs/Arduino_LUFA_Bootloader/LUFA/Drivers/USB/Core/AVR8/../AVR8/../AVR8/Endpoint_AVR8.h **** 				#elif defined(USB_SERIES_2_AVR)
 297:../../LUFA-Libs/Arduino_LUFA_Bootloader/LUFA/Drivers/USB/Core/AVR8/../AVR8/../AVR8/Endpoint_AVR8.h **** 					return UEBCLX;
 298:../../LUFA-Libs/Arduino_LUFA_Bootloader/LUFA/Drivers/USB/Core/AVR8/../AVR8/../AVR8/Endpoint_AVR8.h **** 				#endif
 299:../../LUFA-Libs/Arduino_LUFA_Bootloader/LUFA/Drivers/USB/Core/AVR8/../AVR8/../AVR8/Endpoint_AVR8.h **** 			}
 300:../../LUFA-Libs/Arduino_LUFA_Bootloader/LUFA/Drivers/USB/Core/AVR8/../AVR8/../AVR8/Endpoint_AVR8.h **** 
 301:../../LUFA-Libs/Arduino_LUFA_Bootloader/LUFA/Drivers/USB/Core/AVR8/../AVR8/../AVR8/Endpoint_AVR8.h **** 			/** Get the endpoint address of the currently selected endpoint. This is typically used to save
 302:../../LUFA-Libs/Arduino_LUFA_Bootloader/LUFA/Drivers/USB/Core/AVR8/../AVR8/../AVR8/Endpoint_AVR8.h **** 			 *  the currently selected endpoint number so that it can be restored after another endpoint has
 303:../../LUFA-Libs/Arduino_LUFA_Bootloader/LUFA/Drivers/USB/Core/AVR8/../AVR8/../AVR8/Endpoint_AVR8.h **** 			 *  been manipulated.
 304:../../LUFA-Libs/Arduino_LUFA_Bootloader/LUFA/Drivers/USB/Core/AVR8/../AVR8/../AVR8/Endpoint_AVR8.h **** 			 *
 305:../../LUFA-Libs/Arduino_LUFA_Bootloader/LUFA/Drivers/USB/Core/AVR8/../AVR8/../AVR8/Endpoint_AVR8.h **** 			 *  \return Index of the currently selected endpoint.
 306:../../LUFA-Libs/Arduino_LUFA_Bootloader/LUFA/Drivers/USB/Core/AVR8/../AVR8/../AVR8/Endpoint_AVR8.h **** 			 */
 307:../../LUFA-Libs/Arduino_LUFA_Bootloader/LUFA/Drivers/USB/Core/AVR8/../AVR8/../AVR8/Endpoint_AVR8.h **** 			static inline uint8_t Endpoint_GetCurrentEndpoint(void) ATTR_WARN_UNUSED_RESULT ATTR_ALWAYS_INLI
 308:../../LUFA-Libs/Arduino_LUFA_Bootloader/LUFA/Drivers/USB/Core/AVR8/../AVR8/../AVR8/Endpoint_AVR8.h **** 			static inline uint8_t Endpoint_GetCurrentEndpoint(void)
 309:../../LUFA-Libs/Arduino_LUFA_Bootloader/LUFA/Drivers/USB/Core/AVR8/../AVR8/../AVR8/Endpoint_AVR8.h **** 			{
 310:../../LUFA-Libs/Arduino_LUFA_Bootloader/LUFA/Drivers/USB/Core/AVR8/../AVR8/../AVR8/Endpoint_AVR8.h **** 				#if !defined(CONTROL_ONLY_DEVICE)
 311:../../LUFA-Libs/Arduino_LUFA_Bootloader/LUFA/Drivers/USB/Core/AVR8/../AVR8/../AVR8/Endpoint_AVR8.h **** 					return (UENUM & ENDPOINT_EPNUM_MASK);
 312:../../LUFA-Libs/Arduino_LUFA_Bootloader/LUFA/Drivers/USB/Core/AVR8/../AVR8/../AVR8/Endpoint_AVR8.h **** 				#else
 313:../../LUFA-Libs/Arduino_LUFA_Bootloader/LUFA/Drivers/USB/Core/AVR8/../AVR8/../AVR8/Endpoint_AVR8.h **** 					return ENDPOINT_CONTROLEP;
 314:../../LUFA-Libs/Arduino_LUFA_Bootloader/LUFA/Drivers/USB/Core/AVR8/../AVR8/../AVR8/Endpoint_AVR8.h **** 				#endif
 315:../../LUFA-Libs/Arduino_LUFA_Bootloader/LUFA/Drivers/USB/Core/AVR8/../AVR8/../AVR8/Endpoint_AVR8.h **** 			}
 316:../../LUFA-Libs/Arduino_LUFA_Bootloader/LUFA/Drivers/USB/Core/AVR8/../AVR8/../AVR8/Endpoint_AVR8.h **** 
 317:../../LUFA-Libs/Arduino_LUFA_Bootloader/LUFA/Drivers/USB/Core/AVR8/../AVR8/../AVR8/Endpoint_AVR8.h **** 			/** Selects the given endpoint number. If the address from the device descriptors is used, the
 318:../../LUFA-Libs/Arduino_LUFA_Bootloader/LUFA/Drivers/USB/Core/AVR8/../AVR8/../AVR8/Endpoint_AVR8.h **** 			 *  value should be masked with the \ref ENDPOINT_EPNUM_MASK constant to extract only the endpoi
 319:../../LUFA-Libs/Arduino_LUFA_Bootloader/LUFA/Drivers/USB/Core/AVR8/../AVR8/../AVR8/Endpoint_AVR8.h **** 			 *  number (and discarding the endpoint direction bit).
 320:../../LUFA-Libs/Arduino_LUFA_Bootloader/LUFA/Drivers/USB/Core/AVR8/../AVR8/../AVR8/Endpoint_AVR8.h **** 			 *
 321:../../LUFA-Libs/Arduino_LUFA_Bootloader/LUFA/Drivers/USB/Core/AVR8/../AVR8/../AVR8/Endpoint_AVR8.h **** 			 *  Any endpoint operations which do not require the endpoint number to be indicated will operat
 322:../../LUFA-Libs/Arduino_LUFA_Bootloader/LUFA/Drivers/USB/Core/AVR8/../AVR8/../AVR8/Endpoint_AVR8.h **** 			 *  the currently selected endpoint.
 323:../../LUFA-Libs/Arduino_LUFA_Bootloader/LUFA/Drivers/USB/Core/AVR8/../AVR8/../AVR8/Endpoint_AVR8.h **** 			 *
 324:../../LUFA-Libs/Arduino_LUFA_Bootloader/LUFA/Drivers/USB/Core/AVR8/../AVR8/../AVR8/Endpoint_AVR8.h **** 			 *  \param[in] EndpointNumber Endpoint number to select.
 325:../../LUFA-Libs/Arduino_LUFA_Bootloader/LUFA/Drivers/USB/Core/AVR8/../AVR8/../AVR8/Endpoint_AVR8.h **** 			 */
 326:../../LUFA-Libs/Arduino_LUFA_Bootloader/LUFA/Drivers/USB/Core/AVR8/../AVR8/../AVR8/Endpoint_AVR8.h **** 			static inline void Endpoint_SelectEndpoint(const uint8_t EndpointNumber) ATTR_ALWAYS_INLINE;
 327:../../LUFA-Libs/Arduino_LUFA_Bootloader/LUFA/Drivers/USB/Core/AVR8/../AVR8/../AVR8/Endpoint_AVR8.h **** 			static inline void Endpoint_SelectEndpoint(const uint8_t EndpointNumber)
 328:../../LUFA-Libs/Arduino_LUFA_Bootloader/LUFA/Drivers/USB/Core/AVR8/../AVR8/../AVR8/Endpoint_AVR8.h **** 			{
 329:../../LUFA-Libs/Arduino_LUFA_Bootloader/LUFA/Drivers/USB/Core/AVR8/../AVR8/../AVR8/Endpoint_AVR8.h **** 				#if !defined(CONTROL_ONLY_DEVICE)
 330:../../LUFA-Libs/Arduino_LUFA_Bootloader/LUFA/Drivers/USB/Core/AVR8/../AVR8/../AVR8/Endpoint_AVR8.h **** 					UENUM = EndpointNumber;
 331:../../LUFA-Libs/Arduino_LUFA_Bootloader/LUFA/Drivers/USB/Core/AVR8/../AVR8/../AVR8/Endpoint_AVR8.h **** 				#endif
 332:../../LUFA-Libs/Arduino_LUFA_Bootloader/LUFA/Drivers/USB/Core/AVR8/../AVR8/../AVR8/Endpoint_AVR8.h **** 			}
 333:../../LUFA-Libs/Arduino_LUFA_Bootloader/LUFA/Drivers/USB/Core/AVR8/../AVR8/../AVR8/Endpoint_AVR8.h **** 
 334:../../LUFA-Libs/Arduino_LUFA_Bootloader/LUFA/Drivers/USB/Core/AVR8/../AVR8/../AVR8/Endpoint_AVR8.h **** 			/** Resets the endpoint bank FIFO. This clears all the endpoint banks and resets the USB control
 335:../../LUFA-Libs/Arduino_LUFA_Bootloader/LUFA/Drivers/USB/Core/AVR8/../AVR8/../AVR8/Endpoint_AVR8.h **** 			 *  data In and Out pointers to the bank's contents.
 336:../../LUFA-Libs/Arduino_LUFA_Bootloader/LUFA/Drivers/USB/Core/AVR8/../AVR8/../AVR8/Endpoint_AVR8.h **** 			 *
 337:../../LUFA-Libs/Arduino_LUFA_Bootloader/LUFA/Drivers/USB/Core/AVR8/../AVR8/../AVR8/Endpoint_AVR8.h **** 			 *  \param[in] EndpointNumber Endpoint number whose FIFO buffers are to be reset.
 338:../../LUFA-Libs/Arduino_LUFA_Bootloader/LUFA/Drivers/USB/Core/AVR8/../AVR8/../AVR8/Endpoint_AVR8.h **** 			 */
 339:../../LUFA-Libs/Arduino_LUFA_Bootloader/LUFA/Drivers/USB/Core/AVR8/../AVR8/../AVR8/Endpoint_AVR8.h **** 			static inline void Endpoint_ResetEndpoint(const uint8_t EndpointNumber) ATTR_ALWAYS_INLINE;
 340:../../LUFA-Libs/Arduino_LUFA_Bootloader/LUFA/Drivers/USB/Core/AVR8/../AVR8/../AVR8/Endpoint_AVR8.h **** 			static inline void Endpoint_ResetEndpoint(const uint8_t EndpointNumber)
 341:../../LUFA-Libs/Arduino_LUFA_Bootloader/LUFA/Drivers/USB/Core/AVR8/../AVR8/../AVR8/Endpoint_AVR8.h **** 			{
 342:../../LUFA-Libs/Arduino_LUFA_Bootloader/LUFA/Drivers/USB/Core/AVR8/../AVR8/../AVR8/Endpoint_AVR8.h **** 				UERST = (1 << EndpointNumber);
 343:../../LUFA-Libs/Arduino_LUFA_Bootloader/LUFA/Drivers/USB/Core/AVR8/../AVR8/../AVR8/Endpoint_AVR8.h **** 				UERST = 0;
 344:../../LUFA-Libs/Arduino_LUFA_Bootloader/LUFA/Drivers/USB/Core/AVR8/../AVR8/../AVR8/Endpoint_AVR8.h **** 			}
 345:../../LUFA-Libs/Arduino_LUFA_Bootloader/LUFA/Drivers/USB/Core/AVR8/../AVR8/../AVR8/Endpoint_AVR8.h **** 
 346:../../LUFA-Libs/Arduino_LUFA_Bootloader/LUFA/Drivers/USB/Core/AVR8/../AVR8/../AVR8/Endpoint_AVR8.h **** 			/** Enables the currently selected endpoint so that data can be sent and received through it to
 347:../../LUFA-Libs/Arduino_LUFA_Bootloader/LUFA/Drivers/USB/Core/AVR8/../AVR8/../AVR8/Endpoint_AVR8.h **** 			 *  and from a host.
 348:../../LUFA-Libs/Arduino_LUFA_Bootloader/LUFA/Drivers/USB/Core/AVR8/../AVR8/../AVR8/Endpoint_AVR8.h **** 			 *
 349:../../LUFA-Libs/Arduino_LUFA_Bootloader/LUFA/Drivers/USB/Core/AVR8/../AVR8/../AVR8/Endpoint_AVR8.h **** 			 *  \note Endpoints must first be configured properly via \ref Endpoint_ConfigureEndpoint().
 350:../../LUFA-Libs/Arduino_LUFA_Bootloader/LUFA/Drivers/USB/Core/AVR8/../AVR8/../AVR8/Endpoint_AVR8.h **** 			 */
 351:../../LUFA-Libs/Arduino_LUFA_Bootloader/LUFA/Drivers/USB/Core/AVR8/../AVR8/../AVR8/Endpoint_AVR8.h **** 			static inline void Endpoint_EnableEndpoint(void) ATTR_ALWAYS_INLINE;
 352:../../LUFA-Libs/Arduino_LUFA_Bootloader/LUFA/Drivers/USB/Core/AVR8/../AVR8/../AVR8/Endpoint_AVR8.h **** 			static inline void Endpoint_EnableEndpoint(void)
 353:../../LUFA-Libs/Arduino_LUFA_Bootloader/LUFA/Drivers/USB/Core/AVR8/../AVR8/../AVR8/Endpoint_AVR8.h **** 			{
 354:../../LUFA-Libs/Arduino_LUFA_Bootloader/LUFA/Drivers/USB/Core/AVR8/../AVR8/../AVR8/Endpoint_AVR8.h **** 				UECONX |= (1 << EPEN);
 355:../../LUFA-Libs/Arduino_LUFA_Bootloader/LUFA/Drivers/USB/Core/AVR8/../AVR8/../AVR8/Endpoint_AVR8.h **** 			}
 356:../../LUFA-Libs/Arduino_LUFA_Bootloader/LUFA/Drivers/USB/Core/AVR8/../AVR8/../AVR8/Endpoint_AVR8.h **** 
 357:../../LUFA-Libs/Arduino_LUFA_Bootloader/LUFA/Drivers/USB/Core/AVR8/../AVR8/../AVR8/Endpoint_AVR8.h **** 			/** Disables the currently selected endpoint so that data cannot be sent and received through it
 358:../../LUFA-Libs/Arduino_LUFA_Bootloader/LUFA/Drivers/USB/Core/AVR8/../AVR8/../AVR8/Endpoint_AVR8.h **** 			 *  to and from a host.
 359:../../LUFA-Libs/Arduino_LUFA_Bootloader/LUFA/Drivers/USB/Core/AVR8/../AVR8/../AVR8/Endpoint_AVR8.h **** 			 */
 360:../../LUFA-Libs/Arduino_LUFA_Bootloader/LUFA/Drivers/USB/Core/AVR8/../AVR8/../AVR8/Endpoint_AVR8.h **** 			static inline void Endpoint_DisableEndpoint(void) ATTR_ALWAYS_INLINE;
 361:../../LUFA-Libs/Arduino_LUFA_Bootloader/LUFA/Drivers/USB/Core/AVR8/../AVR8/../AVR8/Endpoint_AVR8.h **** 			static inline void Endpoint_DisableEndpoint(void)
 362:../../LUFA-Libs/Arduino_LUFA_Bootloader/LUFA/Drivers/USB/Core/AVR8/../AVR8/../AVR8/Endpoint_AVR8.h **** 			{
 363:../../LUFA-Libs/Arduino_LUFA_Bootloader/LUFA/Drivers/USB/Core/AVR8/../AVR8/../AVR8/Endpoint_AVR8.h **** 				UECONX &= ~(1 << EPEN);
 364:../../LUFA-Libs/Arduino_LUFA_Bootloader/LUFA/Drivers/USB/Core/AVR8/../AVR8/../AVR8/Endpoint_AVR8.h **** 			}
 365:../../LUFA-Libs/Arduino_LUFA_Bootloader/LUFA/Drivers/USB/Core/AVR8/../AVR8/../AVR8/Endpoint_AVR8.h **** 
 366:../../LUFA-Libs/Arduino_LUFA_Bootloader/LUFA/Drivers/USB/Core/AVR8/../AVR8/../AVR8/Endpoint_AVR8.h **** 			/** Determines if the currently selected endpoint is enabled, but not necessarily configured.
 367:../../LUFA-Libs/Arduino_LUFA_Bootloader/LUFA/Drivers/USB/Core/AVR8/../AVR8/../AVR8/Endpoint_AVR8.h **** 			 *
 368:../../LUFA-Libs/Arduino_LUFA_Bootloader/LUFA/Drivers/USB/Core/AVR8/../AVR8/../AVR8/Endpoint_AVR8.h **** 			 * \return Boolean \c true if the currently selected endpoint is enabled, \c false otherwise.
 369:../../LUFA-Libs/Arduino_LUFA_Bootloader/LUFA/Drivers/USB/Core/AVR8/../AVR8/../AVR8/Endpoint_AVR8.h **** 			 */
 370:../../LUFA-Libs/Arduino_LUFA_Bootloader/LUFA/Drivers/USB/Core/AVR8/../AVR8/../AVR8/Endpoint_AVR8.h **** 			static inline bool Endpoint_IsEnabled(void) ATTR_WARN_UNUSED_RESULT ATTR_ALWAYS_INLINE;
 371:../../LUFA-Libs/Arduino_LUFA_Bootloader/LUFA/Drivers/USB/Core/AVR8/../AVR8/../AVR8/Endpoint_AVR8.h **** 			static inline bool Endpoint_IsEnabled(void)
 372:../../LUFA-Libs/Arduino_LUFA_Bootloader/LUFA/Drivers/USB/Core/AVR8/../AVR8/../AVR8/Endpoint_AVR8.h **** 			{
 373:../../LUFA-Libs/Arduino_LUFA_Bootloader/LUFA/Drivers/USB/Core/AVR8/../AVR8/../AVR8/Endpoint_AVR8.h **** 				return ((UECONX & (1 << EPEN)) ? true : false);
 374:../../LUFA-Libs/Arduino_LUFA_Bootloader/LUFA/Drivers/USB/Core/AVR8/../AVR8/../AVR8/Endpoint_AVR8.h **** 			}
 375:../../LUFA-Libs/Arduino_LUFA_Bootloader/LUFA/Drivers/USB/Core/AVR8/../AVR8/../AVR8/Endpoint_AVR8.h **** 
 376:../../LUFA-Libs/Arduino_LUFA_Bootloader/LUFA/Drivers/USB/Core/AVR8/../AVR8/../AVR8/Endpoint_AVR8.h **** 			/** Retrieves the number of busy banks in the currently selected endpoint, which have been queue
 377:../../LUFA-Libs/Arduino_LUFA_Bootloader/LUFA/Drivers/USB/Core/AVR8/../AVR8/../AVR8/Endpoint_AVR8.h **** 			 *  transmission via the \ref Endpoint_ClearIN() command, or are awaiting acknowledgement via th
 378:../../LUFA-Libs/Arduino_LUFA_Bootloader/LUFA/Drivers/USB/Core/AVR8/../AVR8/../AVR8/Endpoint_AVR8.h **** 			 *  \ref Endpoint_ClearOUT() command.
 379:../../LUFA-Libs/Arduino_LUFA_Bootloader/LUFA/Drivers/USB/Core/AVR8/../AVR8/../AVR8/Endpoint_AVR8.h **** 			 *
 380:../../LUFA-Libs/Arduino_LUFA_Bootloader/LUFA/Drivers/USB/Core/AVR8/../AVR8/../AVR8/Endpoint_AVR8.h **** 			 *  \ingroup Group_EndpointPacketManagement_AVR8
 381:../../LUFA-Libs/Arduino_LUFA_Bootloader/LUFA/Drivers/USB/Core/AVR8/../AVR8/../AVR8/Endpoint_AVR8.h **** 			 *
 382:../../LUFA-Libs/Arduino_LUFA_Bootloader/LUFA/Drivers/USB/Core/AVR8/../AVR8/../AVR8/Endpoint_AVR8.h **** 			 *  \return Total number of busy banks in the selected endpoint.
 383:../../LUFA-Libs/Arduino_LUFA_Bootloader/LUFA/Drivers/USB/Core/AVR8/../AVR8/../AVR8/Endpoint_AVR8.h **** 			 */
 384:../../LUFA-Libs/Arduino_LUFA_Bootloader/LUFA/Drivers/USB/Core/AVR8/../AVR8/../AVR8/Endpoint_AVR8.h **** 			static inline uint8_t Endpoint_GetBusyBanks(void) ATTR_ALWAYS_INLINE ATTR_WARN_UNUSED_RESULT;
 385:../../LUFA-Libs/Arduino_LUFA_Bootloader/LUFA/Drivers/USB/Core/AVR8/../AVR8/../AVR8/Endpoint_AVR8.h **** 			static inline uint8_t Endpoint_GetBusyBanks(void)
 386:../../LUFA-Libs/Arduino_LUFA_Bootloader/LUFA/Drivers/USB/Core/AVR8/../AVR8/../AVR8/Endpoint_AVR8.h **** 			{
 387:../../LUFA-Libs/Arduino_LUFA_Bootloader/LUFA/Drivers/USB/Core/AVR8/../AVR8/../AVR8/Endpoint_AVR8.h **** 				return (UESTA0X & (0x03 << NBUSYBK0));
 388:../../LUFA-Libs/Arduino_LUFA_Bootloader/LUFA/Drivers/USB/Core/AVR8/../AVR8/../AVR8/Endpoint_AVR8.h **** 			}
 389:../../LUFA-Libs/Arduino_LUFA_Bootloader/LUFA/Drivers/USB/Core/AVR8/../AVR8/../AVR8/Endpoint_AVR8.h **** 
 390:../../LUFA-Libs/Arduino_LUFA_Bootloader/LUFA/Drivers/USB/Core/AVR8/../AVR8/../AVR8/Endpoint_AVR8.h **** 			/** Aborts all pending IN transactions on the currently selected endpoint, once the bank
 391:../../LUFA-Libs/Arduino_LUFA_Bootloader/LUFA/Drivers/USB/Core/AVR8/../AVR8/../AVR8/Endpoint_AVR8.h **** 			 *  has been queued for transmission to the host via \ref Endpoint_ClearIN(). This function
 392:../../LUFA-Libs/Arduino_LUFA_Bootloader/LUFA/Drivers/USB/Core/AVR8/../AVR8/../AVR8/Endpoint_AVR8.h **** 			 *  will terminate all queued transactions, resetting the endpoint banks ready for a new
 393:../../LUFA-Libs/Arduino_LUFA_Bootloader/LUFA/Drivers/USB/Core/AVR8/../AVR8/../AVR8/Endpoint_AVR8.h **** 			 *  packet.
 394:../../LUFA-Libs/Arduino_LUFA_Bootloader/LUFA/Drivers/USB/Core/AVR8/../AVR8/../AVR8/Endpoint_AVR8.h **** 			 *
 395:../../LUFA-Libs/Arduino_LUFA_Bootloader/LUFA/Drivers/USB/Core/AVR8/../AVR8/../AVR8/Endpoint_AVR8.h **** 			 *  \ingroup Group_EndpointPacketManagement_AVR8
 396:../../LUFA-Libs/Arduino_LUFA_Bootloader/LUFA/Drivers/USB/Core/AVR8/../AVR8/../AVR8/Endpoint_AVR8.h **** 			 */
 397:../../LUFA-Libs/Arduino_LUFA_Bootloader/LUFA/Drivers/USB/Core/AVR8/../AVR8/../AVR8/Endpoint_AVR8.h **** 			static inline void Endpoint_AbortPendingIN(void)
 398:../../LUFA-Libs/Arduino_LUFA_Bootloader/LUFA/Drivers/USB/Core/AVR8/../AVR8/../AVR8/Endpoint_AVR8.h **** 			{
 399:../../LUFA-Libs/Arduino_LUFA_Bootloader/LUFA/Drivers/USB/Core/AVR8/../AVR8/../AVR8/Endpoint_AVR8.h **** 				while (Endpoint_GetBusyBanks() != 0)
 400:../../LUFA-Libs/Arduino_LUFA_Bootloader/LUFA/Drivers/USB/Core/AVR8/../AVR8/../AVR8/Endpoint_AVR8.h **** 				{
 401:../../LUFA-Libs/Arduino_LUFA_Bootloader/LUFA/Drivers/USB/Core/AVR8/../AVR8/../AVR8/Endpoint_AVR8.h **** 					UEINTX |= (1 << RXOUTI);
 402:../../LUFA-Libs/Arduino_LUFA_Bootloader/LUFA/Drivers/USB/Core/AVR8/../AVR8/../AVR8/Endpoint_AVR8.h **** 					while (UEINTX & (1 << RXOUTI));
 403:../../LUFA-Libs/Arduino_LUFA_Bootloader/LUFA/Drivers/USB/Core/AVR8/../AVR8/../AVR8/Endpoint_AVR8.h **** 				}
 404:../../LUFA-Libs/Arduino_LUFA_Bootloader/LUFA/Drivers/USB/Core/AVR8/../AVR8/../AVR8/Endpoint_AVR8.h **** 			}
 405:../../LUFA-Libs/Arduino_LUFA_Bootloader/LUFA/Drivers/USB/Core/AVR8/../AVR8/../AVR8/Endpoint_AVR8.h **** 
 406:../../LUFA-Libs/Arduino_LUFA_Bootloader/LUFA/Drivers/USB/Core/AVR8/../AVR8/../AVR8/Endpoint_AVR8.h **** 			/** Determines if the currently selected endpoint may be read from (if data is waiting in the en
 407:../../LUFA-Libs/Arduino_LUFA_Bootloader/LUFA/Drivers/USB/Core/AVR8/../AVR8/../AVR8/Endpoint_AVR8.h **** 			 *  bank and the endpoint is an OUT direction, or if the bank is not yet full if the endpoint is
 408:../../LUFA-Libs/Arduino_LUFA_Bootloader/LUFA/Drivers/USB/Core/AVR8/../AVR8/../AVR8/Endpoint_AVR8.h **** 			 *  direction). This function will return false if an error has occurred in the endpoint, if the
 409:../../LUFA-Libs/Arduino_LUFA_Bootloader/LUFA/Drivers/USB/Core/AVR8/../AVR8/../AVR8/Endpoint_AVR8.h **** 			 *  is an OUT direction and no packet (or an empty packet) has been received, or if the endpoint
 410:../../LUFA-Libs/Arduino_LUFA_Bootloader/LUFA/Drivers/USB/Core/AVR8/../AVR8/../AVR8/Endpoint_AVR8.h **** 			 *  direction and the endpoint bank is full.
 411:../../LUFA-Libs/Arduino_LUFA_Bootloader/LUFA/Drivers/USB/Core/AVR8/../AVR8/../AVR8/Endpoint_AVR8.h **** 			 *
 412:../../LUFA-Libs/Arduino_LUFA_Bootloader/LUFA/Drivers/USB/Core/AVR8/../AVR8/../AVR8/Endpoint_AVR8.h **** 			 *  \ingroup Group_EndpointPacketManagement_AVR8
 413:../../LUFA-Libs/Arduino_LUFA_Bootloader/LUFA/Drivers/USB/Core/AVR8/../AVR8/../AVR8/Endpoint_AVR8.h **** 			 *
 414:../../LUFA-Libs/Arduino_LUFA_Bootloader/LUFA/Drivers/USB/Core/AVR8/../AVR8/../AVR8/Endpoint_AVR8.h **** 			 *  \return Boolean \c true if the currently selected endpoint may be read from or written to, d
 415:../../LUFA-Libs/Arduino_LUFA_Bootloader/LUFA/Drivers/USB/Core/AVR8/../AVR8/../AVR8/Endpoint_AVR8.h **** 			 *          on its direction.
 416:../../LUFA-Libs/Arduino_LUFA_Bootloader/LUFA/Drivers/USB/Core/AVR8/../AVR8/../AVR8/Endpoint_AVR8.h **** 			 */
 417:../../LUFA-Libs/Arduino_LUFA_Bootloader/LUFA/Drivers/USB/Core/AVR8/../AVR8/../AVR8/Endpoint_AVR8.h **** 			static inline bool Endpoint_IsReadWriteAllowed(void) ATTR_WARN_UNUSED_RESULT ATTR_ALWAYS_INLINE;
 418:../../LUFA-Libs/Arduino_LUFA_Bootloader/LUFA/Drivers/USB/Core/AVR8/../AVR8/../AVR8/Endpoint_AVR8.h **** 			static inline bool Endpoint_IsReadWriteAllowed(void)
 419:../../LUFA-Libs/Arduino_LUFA_Bootloader/LUFA/Drivers/USB/Core/AVR8/../AVR8/../AVR8/Endpoint_AVR8.h **** 			{
 420:../../LUFA-Libs/Arduino_LUFA_Bootloader/LUFA/Drivers/USB/Core/AVR8/../AVR8/../AVR8/Endpoint_AVR8.h **** 				return ((UEINTX & (1 << RWAL)) ? true : false);
  85               		.loc 2 420 0
  86 0032 8091 E800 		lds r24,232
  87               	.LBE257:
  88               	.LBE256:
  50:../../LUFA-Libs/Arduino_LUFA_Bootloader/LUFA/Drivers/USB/Core/AVR8/EndpointStream_AVR8.c **** 
  51:../../LUFA-Libs/Arduino_LUFA_Bootloader/LUFA/Drivers/USB/Core/AVR8/EndpointStream_AVR8.c **** 	while (Length)
  52:../../LUFA-Libs/Arduino_LUFA_Bootloader/LUFA/Drivers/USB/Core/AVR8/EndpointStream_AVR8.c **** 	{
  53:../../LUFA-Libs/Arduino_LUFA_Bootloader/LUFA/Drivers/USB/Core/AVR8/EndpointStream_AVR8.c **** 		if (!(Endpoint_IsReadWriteAllowed()))
  89               		.loc 1 53 0
  90 0036 85FD      		sbrc r24,5
  91 0038 00C0      		rjmp .L5
  92               	.LBB258:
  93               	.LBB259:
 421:../../LUFA-Libs/Arduino_LUFA_Bootloader/LUFA/Drivers/USB/Core/AVR8/../AVR8/../AVR8/Endpoint_AVR8.h **** 			}
 422:../../LUFA-Libs/Arduino_LUFA_Bootloader/LUFA/Drivers/USB/Core/AVR8/../AVR8/../AVR8/Endpoint_AVR8.h **** 
 423:../../LUFA-Libs/Arduino_LUFA_Bootloader/LUFA/Drivers/USB/Core/AVR8/../AVR8/../AVR8/Endpoint_AVR8.h **** 			/** Determines if the currently selected endpoint is configured.
 424:../../LUFA-Libs/Arduino_LUFA_Bootloader/LUFA/Drivers/USB/Core/AVR8/../AVR8/../AVR8/Endpoint_AVR8.h **** 			 *
 425:../../LUFA-Libs/Arduino_LUFA_Bootloader/LUFA/Drivers/USB/Core/AVR8/../AVR8/../AVR8/Endpoint_AVR8.h **** 			 *  \return Boolean \c true if the currently selected endpoint has been configured, \c false oth
 426:../../LUFA-Libs/Arduino_LUFA_Bootloader/LUFA/Drivers/USB/Core/AVR8/../AVR8/../AVR8/Endpoint_AVR8.h **** 			 */
 427:../../LUFA-Libs/Arduino_LUFA_Bootloader/LUFA/Drivers/USB/Core/AVR8/../AVR8/../AVR8/Endpoint_AVR8.h **** 			static inline bool Endpoint_IsConfigured(void) ATTR_WARN_UNUSED_RESULT ATTR_ALWAYS_INLINE;
 428:../../LUFA-Libs/Arduino_LUFA_Bootloader/LUFA/Drivers/USB/Core/AVR8/../AVR8/../AVR8/Endpoint_AVR8.h **** 			static inline bool Endpoint_IsConfigured(void)
 429:../../LUFA-Libs/Arduino_LUFA_Bootloader/LUFA/Drivers/USB/Core/AVR8/../AVR8/../AVR8/Endpoint_AVR8.h **** 			{
 430:../../LUFA-Libs/Arduino_LUFA_Bootloader/LUFA/Drivers/USB/Core/AVR8/../AVR8/../AVR8/Endpoint_AVR8.h **** 				return ((UESTA0X & (1 << CFGOK)) ? true : false);
 431:../../LUFA-Libs/Arduino_LUFA_Bootloader/LUFA/Drivers/USB/Core/AVR8/../AVR8/../AVR8/Endpoint_AVR8.h **** 			}
 432:../../LUFA-Libs/Arduino_LUFA_Bootloader/LUFA/Drivers/USB/Core/AVR8/../AVR8/../AVR8/Endpoint_AVR8.h **** 
 433:../../LUFA-Libs/Arduino_LUFA_Bootloader/LUFA/Drivers/USB/Core/AVR8/../AVR8/../AVR8/Endpoint_AVR8.h **** 			/** Returns a mask indicating which INTERRUPT type endpoints have interrupted - i.e. their
 434:../../LUFA-Libs/Arduino_LUFA_Bootloader/LUFA/Drivers/USB/Core/AVR8/../AVR8/../AVR8/Endpoint_AVR8.h **** 			 *  interrupt duration has elapsed. Which endpoints have interrupted can be determined by
 435:../../LUFA-Libs/Arduino_LUFA_Bootloader/LUFA/Drivers/USB/Core/AVR8/../AVR8/../AVR8/Endpoint_AVR8.h **** 			 *  masking the return value against <tt>(1 << <i>{Endpoint Number}</i>)</tt>.
 436:../../LUFA-Libs/Arduino_LUFA_Bootloader/LUFA/Drivers/USB/Core/AVR8/../AVR8/../AVR8/Endpoint_AVR8.h **** 			 *
 437:../../LUFA-Libs/Arduino_LUFA_Bootloader/LUFA/Drivers/USB/Core/AVR8/../AVR8/../AVR8/Endpoint_AVR8.h **** 			 *  \return Mask whose bits indicate which endpoints have interrupted.
 438:../../LUFA-Libs/Arduino_LUFA_Bootloader/LUFA/Drivers/USB/Core/AVR8/../AVR8/../AVR8/Endpoint_AVR8.h **** 			 */
 439:../../LUFA-Libs/Arduino_LUFA_Bootloader/LUFA/Drivers/USB/Core/AVR8/../AVR8/../AVR8/Endpoint_AVR8.h **** 			static inline uint8_t Endpoint_GetEndpointInterrupts(void) ATTR_WARN_UNUSED_RESULT ATTR_ALWAYS_I
 440:../../LUFA-Libs/Arduino_LUFA_Bootloader/LUFA/Drivers/USB/Core/AVR8/../AVR8/../AVR8/Endpoint_AVR8.h **** 			static inline uint8_t Endpoint_GetEndpointInterrupts(void)
 441:../../LUFA-Libs/Arduino_LUFA_Bootloader/LUFA/Drivers/USB/Core/AVR8/../AVR8/../AVR8/Endpoint_AVR8.h **** 			{
 442:../../LUFA-Libs/Arduino_LUFA_Bootloader/LUFA/Drivers/USB/Core/AVR8/../AVR8/../AVR8/Endpoint_AVR8.h **** 				return UEINT;
 443:../../LUFA-Libs/Arduino_LUFA_Bootloader/LUFA/Drivers/USB/Core/AVR8/../AVR8/../AVR8/Endpoint_AVR8.h **** 			}
 444:../../LUFA-Libs/Arduino_LUFA_Bootloader/LUFA/Drivers/USB/Core/AVR8/../AVR8/../AVR8/Endpoint_AVR8.h **** 
 445:../../LUFA-Libs/Arduino_LUFA_Bootloader/LUFA/Drivers/USB/Core/AVR8/../AVR8/../AVR8/Endpoint_AVR8.h **** 			/** Determines if the specified endpoint number has interrupted (valid only for INTERRUPT type
 446:../../LUFA-Libs/Arduino_LUFA_Bootloader/LUFA/Drivers/USB/Core/AVR8/../AVR8/../AVR8/Endpoint_AVR8.h **** 			 *  endpoints).
 447:../../LUFA-Libs/Arduino_LUFA_Bootloader/LUFA/Drivers/USB/Core/AVR8/../AVR8/../AVR8/Endpoint_AVR8.h **** 			 *
 448:../../LUFA-Libs/Arduino_LUFA_Bootloader/LUFA/Drivers/USB/Core/AVR8/../AVR8/../AVR8/Endpoint_AVR8.h **** 			 *  \param[in] EndpointNumber  Index of the endpoint whose interrupt flag should be tested.
 449:../../LUFA-Libs/Arduino_LUFA_Bootloader/LUFA/Drivers/USB/Core/AVR8/../AVR8/../AVR8/Endpoint_AVR8.h **** 			 *
 450:../../LUFA-Libs/Arduino_LUFA_Bootloader/LUFA/Drivers/USB/Core/AVR8/../AVR8/../AVR8/Endpoint_AVR8.h **** 			 *  \return Boolean \c true if the specified endpoint has interrupted, \c false otherwise.
 451:../../LUFA-Libs/Arduino_LUFA_Bootloader/LUFA/Drivers/USB/Core/AVR8/../AVR8/../AVR8/Endpoint_AVR8.h **** 			 */
 452:../../LUFA-Libs/Arduino_LUFA_Bootloader/LUFA/Drivers/USB/Core/AVR8/../AVR8/../AVR8/Endpoint_AVR8.h **** 			static inline bool Endpoint_HasEndpointInterrupted(const uint8_t EndpointNumber) ATTR_WARN_UNUSE
 453:../../LUFA-Libs/Arduino_LUFA_Bootloader/LUFA/Drivers/USB/Core/AVR8/../AVR8/../AVR8/Endpoint_AVR8.h **** 			static inline bool Endpoint_HasEndpointInterrupted(const uint8_t EndpointNumber)
 454:../../LUFA-Libs/Arduino_LUFA_Bootloader/LUFA/Drivers/USB/Core/AVR8/../AVR8/../AVR8/Endpoint_AVR8.h **** 			{
 455:../../LUFA-Libs/Arduino_LUFA_Bootloader/LUFA/Drivers/USB/Core/AVR8/../AVR8/../AVR8/Endpoint_AVR8.h **** 				return ((Endpoint_GetEndpointInterrupts() & (1 << EndpointNumber)) ? true : false);
 456:../../LUFA-Libs/Arduino_LUFA_Bootloader/LUFA/Drivers/USB/Core/AVR8/../AVR8/../AVR8/Endpoint_AVR8.h **** 			}
 457:../../LUFA-Libs/Arduino_LUFA_Bootloader/LUFA/Drivers/USB/Core/AVR8/../AVR8/../AVR8/Endpoint_AVR8.h **** 
 458:../../LUFA-Libs/Arduino_LUFA_Bootloader/LUFA/Drivers/USB/Core/AVR8/../AVR8/../AVR8/Endpoint_AVR8.h **** 			/** Determines if the selected IN endpoint is ready for a new packet to be sent to the host.
 459:../../LUFA-Libs/Arduino_LUFA_Bootloader/LUFA/Drivers/USB/Core/AVR8/../AVR8/../AVR8/Endpoint_AVR8.h **** 			 *
 460:../../LUFA-Libs/Arduino_LUFA_Bootloader/LUFA/Drivers/USB/Core/AVR8/../AVR8/../AVR8/Endpoint_AVR8.h **** 			 *  \ingroup Group_EndpointPacketManagement_AVR8
 461:../../LUFA-Libs/Arduino_LUFA_Bootloader/LUFA/Drivers/USB/Core/AVR8/../AVR8/../AVR8/Endpoint_AVR8.h **** 			 *
 462:../../LUFA-Libs/Arduino_LUFA_Bootloader/LUFA/Drivers/USB/Core/AVR8/../AVR8/../AVR8/Endpoint_AVR8.h **** 			 *  \return Boolean \c true if the current endpoint is ready for an IN packet, \c false otherwis
 463:../../LUFA-Libs/Arduino_LUFA_Bootloader/LUFA/Drivers/USB/Core/AVR8/../AVR8/../AVR8/Endpoint_AVR8.h **** 			 */
 464:../../LUFA-Libs/Arduino_LUFA_Bootloader/LUFA/Drivers/USB/Core/AVR8/../AVR8/../AVR8/Endpoint_AVR8.h **** 			static inline bool Endpoint_IsINReady(void) ATTR_WARN_UNUSED_RESULT ATTR_ALWAYS_INLINE;
 465:../../LUFA-Libs/Arduino_LUFA_Bootloader/LUFA/Drivers/USB/Core/AVR8/../AVR8/../AVR8/Endpoint_AVR8.h **** 			static inline bool Endpoint_IsINReady(void)
 466:../../LUFA-Libs/Arduino_LUFA_Bootloader/LUFA/Drivers/USB/Core/AVR8/../AVR8/../AVR8/Endpoint_AVR8.h **** 			{
 467:../../LUFA-Libs/Arduino_LUFA_Bootloader/LUFA/Drivers/USB/Core/AVR8/../AVR8/../AVR8/Endpoint_AVR8.h **** 				return ((UEINTX & (1 << TXINI)) ? true : false);
 468:../../LUFA-Libs/Arduino_LUFA_Bootloader/LUFA/Drivers/USB/Core/AVR8/../AVR8/../AVR8/Endpoint_AVR8.h **** 			}
 469:../../LUFA-Libs/Arduino_LUFA_Bootloader/LUFA/Drivers/USB/Core/AVR8/../AVR8/../AVR8/Endpoint_AVR8.h **** 
 470:../../LUFA-Libs/Arduino_LUFA_Bootloader/LUFA/Drivers/USB/Core/AVR8/../AVR8/../AVR8/Endpoint_AVR8.h **** 			/** Determines if the selected OUT endpoint has received new packet from the host.
 471:../../LUFA-Libs/Arduino_LUFA_Bootloader/LUFA/Drivers/USB/Core/AVR8/../AVR8/../AVR8/Endpoint_AVR8.h **** 			 *
 472:../../LUFA-Libs/Arduino_LUFA_Bootloader/LUFA/Drivers/USB/Core/AVR8/../AVR8/../AVR8/Endpoint_AVR8.h **** 			 *  \ingroup Group_EndpointPacketManagement_AVR8
 473:../../LUFA-Libs/Arduino_LUFA_Bootloader/LUFA/Drivers/USB/Core/AVR8/../AVR8/../AVR8/Endpoint_AVR8.h **** 			 *
 474:../../LUFA-Libs/Arduino_LUFA_Bootloader/LUFA/Drivers/USB/Core/AVR8/../AVR8/../AVR8/Endpoint_AVR8.h **** 			 *  \return Boolean \c true if current endpoint is has received an OUT packet, \c false otherwis
 475:../../LUFA-Libs/Arduino_LUFA_Bootloader/LUFA/Drivers/USB/Core/AVR8/../AVR8/../AVR8/Endpoint_AVR8.h **** 			 */
 476:../../LUFA-Libs/Arduino_LUFA_Bootloader/LUFA/Drivers/USB/Core/AVR8/../AVR8/../AVR8/Endpoint_AVR8.h **** 			static inline bool Endpoint_IsOUTReceived(void) ATTR_WARN_UNUSED_RESULT ATTR_ALWAYS_INLINE;
 477:../../LUFA-Libs/Arduino_LUFA_Bootloader/LUFA/Drivers/USB/Core/AVR8/../AVR8/../AVR8/Endpoint_AVR8.h **** 			static inline bool Endpoint_IsOUTReceived(void)
 478:../../LUFA-Libs/Arduino_LUFA_Bootloader/LUFA/Drivers/USB/Core/AVR8/../AVR8/../AVR8/Endpoint_AVR8.h **** 			{
 479:../../LUFA-Libs/Arduino_LUFA_Bootloader/LUFA/Drivers/USB/Core/AVR8/../AVR8/../AVR8/Endpoint_AVR8.h **** 				return ((UEINTX & (1 << RXOUTI)) ? true : false);
 480:../../LUFA-Libs/Arduino_LUFA_Bootloader/LUFA/Drivers/USB/Core/AVR8/../AVR8/../AVR8/Endpoint_AVR8.h **** 			}
 481:../../LUFA-Libs/Arduino_LUFA_Bootloader/LUFA/Drivers/USB/Core/AVR8/../AVR8/../AVR8/Endpoint_AVR8.h **** 
 482:../../LUFA-Libs/Arduino_LUFA_Bootloader/LUFA/Drivers/USB/Core/AVR8/../AVR8/../AVR8/Endpoint_AVR8.h **** 			/** Determines if the current CONTROL type endpoint has received a SETUP packet.
 483:../../LUFA-Libs/Arduino_LUFA_Bootloader/LUFA/Drivers/USB/Core/AVR8/../AVR8/../AVR8/Endpoint_AVR8.h **** 			 *
 484:../../LUFA-Libs/Arduino_LUFA_Bootloader/LUFA/Drivers/USB/Core/AVR8/../AVR8/../AVR8/Endpoint_AVR8.h **** 			 *  \ingroup Group_EndpointPacketManagement_AVR8
 485:../../LUFA-Libs/Arduino_LUFA_Bootloader/LUFA/Drivers/USB/Core/AVR8/../AVR8/../AVR8/Endpoint_AVR8.h **** 			 *
 486:../../LUFA-Libs/Arduino_LUFA_Bootloader/LUFA/Drivers/USB/Core/AVR8/../AVR8/../AVR8/Endpoint_AVR8.h **** 			 *  \return Boolean \c true if the selected endpoint has received a SETUP packet, \c false other
 487:../../LUFA-Libs/Arduino_LUFA_Bootloader/LUFA/Drivers/USB/Core/AVR8/../AVR8/../AVR8/Endpoint_AVR8.h **** 			 */
 488:../../LUFA-Libs/Arduino_LUFA_Bootloader/LUFA/Drivers/USB/Core/AVR8/../AVR8/../AVR8/Endpoint_AVR8.h **** 			static inline bool Endpoint_IsSETUPReceived(void) ATTR_WARN_UNUSED_RESULT ATTR_ALWAYS_INLINE;
 489:../../LUFA-Libs/Arduino_LUFA_Bootloader/LUFA/Drivers/USB/Core/AVR8/../AVR8/../AVR8/Endpoint_AVR8.h **** 			static inline bool Endpoint_IsSETUPReceived(void)
 490:../../LUFA-Libs/Arduino_LUFA_Bootloader/LUFA/Drivers/USB/Core/AVR8/../AVR8/../AVR8/Endpoint_AVR8.h **** 			{
 491:../../LUFA-Libs/Arduino_LUFA_Bootloader/LUFA/Drivers/USB/Core/AVR8/../AVR8/../AVR8/Endpoint_AVR8.h **** 				return ((UEINTX & (1 << RXSTPI)) ? true : false);
 492:../../LUFA-Libs/Arduino_LUFA_Bootloader/LUFA/Drivers/USB/Core/AVR8/../AVR8/../AVR8/Endpoint_AVR8.h **** 			}
 493:../../LUFA-Libs/Arduino_LUFA_Bootloader/LUFA/Drivers/USB/Core/AVR8/../AVR8/../AVR8/Endpoint_AVR8.h **** 
 494:../../LUFA-Libs/Arduino_LUFA_Bootloader/LUFA/Drivers/USB/Core/AVR8/../AVR8/../AVR8/Endpoint_AVR8.h **** 			/** Clears a received SETUP packet on the currently selected CONTROL type endpoint, freeing up t
 495:../../LUFA-Libs/Arduino_LUFA_Bootloader/LUFA/Drivers/USB/Core/AVR8/../AVR8/../AVR8/Endpoint_AVR8.h **** 			 *  endpoint for the next packet.
 496:../../LUFA-Libs/Arduino_LUFA_Bootloader/LUFA/Drivers/USB/Core/AVR8/../AVR8/../AVR8/Endpoint_AVR8.h **** 			 *
 497:../../LUFA-Libs/Arduino_LUFA_Bootloader/LUFA/Drivers/USB/Core/AVR8/../AVR8/../AVR8/Endpoint_AVR8.h **** 			 *  \ingroup Group_EndpointPacketManagement_AVR8
 498:../../LUFA-Libs/Arduino_LUFA_Bootloader/LUFA/Drivers/USB/Core/AVR8/../AVR8/../AVR8/Endpoint_AVR8.h **** 			 *
 499:../../LUFA-Libs/Arduino_LUFA_Bootloader/LUFA/Drivers/USB/Core/AVR8/../AVR8/../AVR8/Endpoint_AVR8.h **** 			 *  \note This is not applicable for non CONTROL type endpoints.
 500:../../LUFA-Libs/Arduino_LUFA_Bootloader/LUFA/Drivers/USB/Core/AVR8/../AVR8/../AVR8/Endpoint_AVR8.h **** 			 */
 501:../../LUFA-Libs/Arduino_LUFA_Bootloader/LUFA/Drivers/USB/Core/AVR8/../AVR8/../AVR8/Endpoint_AVR8.h **** 			static inline void Endpoint_ClearSETUP(void) ATTR_ALWAYS_INLINE;
 502:../../LUFA-Libs/Arduino_LUFA_Bootloader/LUFA/Drivers/USB/Core/AVR8/../AVR8/../AVR8/Endpoint_AVR8.h **** 			static inline void Endpoint_ClearSETUP(void)
 503:../../LUFA-Libs/Arduino_LUFA_Bootloader/LUFA/Drivers/USB/Core/AVR8/../AVR8/../AVR8/Endpoint_AVR8.h **** 			{
 504:../../LUFA-Libs/Arduino_LUFA_Bootloader/LUFA/Drivers/USB/Core/AVR8/../AVR8/../AVR8/Endpoint_AVR8.h **** 				UEINTX &= ~(1 << RXSTPI);
 505:../../LUFA-Libs/Arduino_LUFA_Bootloader/LUFA/Drivers/USB/Core/AVR8/../AVR8/../AVR8/Endpoint_AVR8.h **** 			}
 506:../../LUFA-Libs/Arduino_LUFA_Bootloader/LUFA/Drivers/USB/Core/AVR8/../AVR8/../AVR8/Endpoint_AVR8.h **** 
 507:../../LUFA-Libs/Arduino_LUFA_Bootloader/LUFA/Drivers/USB/Core/AVR8/../AVR8/../AVR8/Endpoint_AVR8.h **** 			/** Sends an IN packet to the host on the currently selected endpoint, freeing up the endpoint f
 508:../../LUFA-Libs/Arduino_LUFA_Bootloader/LUFA/Drivers/USB/Core/AVR8/../AVR8/../AVR8/Endpoint_AVR8.h **** 			 *  next packet and switching to the alternative endpoint bank if double banked.
 509:../../LUFA-Libs/Arduino_LUFA_Bootloader/LUFA/Drivers/USB/Core/AVR8/../AVR8/../AVR8/Endpoint_AVR8.h **** 			 *
 510:../../LUFA-Libs/Arduino_LUFA_Bootloader/LUFA/Drivers/USB/Core/AVR8/../AVR8/../AVR8/Endpoint_AVR8.h **** 			 *  \ingroup Group_EndpointPacketManagement_AVR8
 511:../../LUFA-Libs/Arduino_LUFA_Bootloader/LUFA/Drivers/USB/Core/AVR8/../AVR8/../AVR8/Endpoint_AVR8.h **** 			 */
 512:../../LUFA-Libs/Arduino_LUFA_Bootloader/LUFA/Drivers/USB/Core/AVR8/../AVR8/../AVR8/Endpoint_AVR8.h **** 			static inline void Endpoint_ClearIN(void) ATTR_ALWAYS_INLINE;
 513:../../LUFA-Libs/Arduino_LUFA_Bootloader/LUFA/Drivers/USB/Core/AVR8/../AVR8/../AVR8/Endpoint_AVR8.h **** 			static inline void Endpoint_ClearIN(void)
 514:../../LUFA-Libs/Arduino_LUFA_Bootloader/LUFA/Drivers/USB/Core/AVR8/../AVR8/../AVR8/Endpoint_AVR8.h **** 			{
 515:../../LUFA-Libs/Arduino_LUFA_Bootloader/LUFA/Drivers/USB/Core/AVR8/../AVR8/../AVR8/Endpoint_AVR8.h **** 				#if !defined(CONTROL_ONLY_DEVICE)
 516:../../LUFA-Libs/Arduino_LUFA_Bootloader/LUFA/Drivers/USB/Core/AVR8/../AVR8/../AVR8/Endpoint_AVR8.h **** 					UEINTX &= ~((1 << TXINI) | (1 << FIFOCON));
 517:../../LUFA-Libs/Arduino_LUFA_Bootloader/LUFA/Drivers/USB/Core/AVR8/../AVR8/../AVR8/Endpoint_AVR8.h **** 				#else
 518:../../LUFA-Libs/Arduino_LUFA_Bootloader/LUFA/Drivers/USB/Core/AVR8/../AVR8/../AVR8/Endpoint_AVR8.h **** 					UEINTX &= ~(1 << TXINI);
 519:../../LUFA-Libs/Arduino_LUFA_Bootloader/LUFA/Drivers/USB/Core/AVR8/../AVR8/../AVR8/Endpoint_AVR8.h **** 				#endif
 520:../../LUFA-Libs/Arduino_LUFA_Bootloader/LUFA/Drivers/USB/Core/AVR8/../AVR8/../AVR8/Endpoint_AVR8.h **** 			}
 521:../../LUFA-Libs/Arduino_LUFA_Bootloader/LUFA/Drivers/USB/Core/AVR8/../AVR8/../AVR8/Endpoint_AVR8.h **** 
 522:../../LUFA-Libs/Arduino_LUFA_Bootloader/LUFA/Drivers/USB/Core/AVR8/../AVR8/../AVR8/Endpoint_AVR8.h **** 			/** Acknowledges an OUT packet to the host on the currently selected endpoint, freeing up the en
 523:../../LUFA-Libs/Arduino_LUFA_Bootloader/LUFA/Drivers/USB/Core/AVR8/../AVR8/../AVR8/Endpoint_AVR8.h **** 			 *  for the next packet and switching to the alternative endpoint bank if double banked.
 524:../../LUFA-Libs/Arduino_LUFA_Bootloader/LUFA/Drivers/USB/Core/AVR8/../AVR8/../AVR8/Endpoint_AVR8.h **** 			 *
 525:../../LUFA-Libs/Arduino_LUFA_Bootloader/LUFA/Drivers/USB/Core/AVR8/../AVR8/../AVR8/Endpoint_AVR8.h **** 			 *  \ingroup Group_EndpointPacketManagement_AVR8
 526:../../LUFA-Libs/Arduino_LUFA_Bootloader/LUFA/Drivers/USB/Core/AVR8/../AVR8/../AVR8/Endpoint_AVR8.h **** 			 */
 527:../../LUFA-Libs/Arduino_LUFA_Bootloader/LUFA/Drivers/USB/Core/AVR8/../AVR8/../AVR8/Endpoint_AVR8.h **** 			static inline void Endpoint_ClearOUT(void) ATTR_ALWAYS_INLINE;
 528:../../LUFA-Libs/Arduino_LUFA_Bootloader/LUFA/Drivers/USB/Core/AVR8/../AVR8/../AVR8/Endpoint_AVR8.h **** 			static inline void Endpoint_ClearOUT(void)
 529:../../LUFA-Libs/Arduino_LUFA_Bootloader/LUFA/Drivers/USB/Core/AVR8/../AVR8/../AVR8/Endpoint_AVR8.h **** 			{
 530:../../LUFA-Libs/Arduino_LUFA_Bootloader/LUFA/Drivers/USB/Core/AVR8/../AVR8/../AVR8/Endpoint_AVR8.h **** 				#if !defined(CONTROL_ONLY_DEVICE)
 531:../../LUFA-Libs/Arduino_LUFA_Bootloader/LUFA/Drivers/USB/Core/AVR8/../AVR8/../AVR8/Endpoint_AVR8.h **** 					UEINTX &= ~((1 << RXOUTI) | (1 << FIFOCON));
  94               		.loc 2 531 0
  95 003a 8091 E800 		lds r24,232
  96 003e 8B77      		andi r24,lo8(123)
  97 0040 8093 E800 		sts 232,r24
  98               	.LBE259:
  99               	.LBE258:
  54:../../LUFA-Libs/Arduino_LUFA_Bootloader/LUFA/Drivers/USB/Core/AVR8/EndpointStream_AVR8.c **** 		{
  55:../../LUFA-Libs/Arduino_LUFA_Bootloader/LUFA/Drivers/USB/Core/AVR8/EndpointStream_AVR8.c **** 			Endpoint_ClearOUT();
  56:../../LUFA-Libs/Arduino_LUFA_Bootloader/LUFA/Drivers/USB/Core/AVR8/EndpointStream_AVR8.c **** 
  57:../../LUFA-Libs/Arduino_LUFA_Bootloader/LUFA/Drivers/USB/Core/AVR8/EndpointStream_AVR8.c **** 			if (BytesProcessed != NULL)
 100               		.loc 1 57 0
 101 0044 0115      		cp r16,__zero_reg__
 102 0046 1105      		cpc r17,__zero_reg__
 103 0048 01F0      		breq .L6
  58:../../LUFA-Libs/Arduino_LUFA_Bootloader/LUFA/Drivers/USB/Core/AVR8/EndpointStream_AVR8.c **** 			{
  59:../../LUFA-Libs/Arduino_LUFA_Bootloader/LUFA/Drivers/USB/Core/AVR8/EndpointStream_AVR8.c **** 				*BytesProcessed += BytesInTransfer;
 104               		.loc 1 59 0
 105 004a F801      		movw r30,r16
 106 004c 8081      		ld r24,Z
 107 004e 9181      		ldd r25,Z+1
 108 0050 8E0D      		add r24,r14
 109 0052 9F1D      		adc r25,r15
 110 0054 9183      		std Z+1,r25
 111 0056 8083      		st Z,r24
  60:../../LUFA-Libs/Arduino_LUFA_Bootloader/LUFA/Drivers/USB/Core/AVR8/EndpointStream_AVR8.c **** 				return ENDPOINT_RWSTREAM_IncompleteTransfer;
 112               		.loc 1 60 0
 113 0058 25E0      		ldi r18,lo8(5)
 114 005a D22E      		mov r13,r18
 115 005c 00C0      		rjmp .L2
 116               	.L6:
  61:../../LUFA-Libs/Arduino_LUFA_Bootloader/LUFA/Drivers/USB/Core/AVR8/EndpointStream_AVR8.c **** 			}
  62:../../LUFA-Libs/Arduino_LUFA_Bootloader/LUFA/Drivers/USB/Core/AVR8/EndpointStream_AVR8.c **** 
  63:../../LUFA-Libs/Arduino_LUFA_Bootloader/LUFA/Drivers/USB/Core/AVR8/EndpointStream_AVR8.c **** 			if ((ErrorCode = Endpoint_WaitUntilReady()))
 117               		.loc 1 63 0
 118 005e 0E94 0000 		call Endpoint_WaitUntilReady
 119               	.LVL6:
 120 0062 8823      		tst r24
 121 0064 01F0      		breq .L10
 122 0066 00C0      		rjmp .L11
 123               	.LVL7:
 124               	.L5:
 125               	.LBB260:
 126               	.LBB261:
 532:../../LUFA-Libs/Arduino_LUFA_Bootloader/LUFA/Drivers/USB/Core/AVR8/../AVR8/../AVR8/Endpoint_AVR8.h **** 				#else
 533:../../LUFA-Libs/Arduino_LUFA_Bootloader/LUFA/Drivers/USB/Core/AVR8/../AVR8/../AVR8/Endpoint_AVR8.h **** 					UEINTX &= ~(1 << RXOUTI);
 534:../../LUFA-Libs/Arduino_LUFA_Bootloader/LUFA/Drivers/USB/Core/AVR8/../AVR8/../AVR8/Endpoint_AVR8.h **** 				#endif
 535:../../LUFA-Libs/Arduino_LUFA_Bootloader/LUFA/Drivers/USB/Core/AVR8/../AVR8/../AVR8/Endpoint_AVR8.h **** 			}
 536:../../LUFA-Libs/Arduino_LUFA_Bootloader/LUFA/Drivers/USB/Core/AVR8/../AVR8/../AVR8/Endpoint_AVR8.h **** 
 537:../../LUFA-Libs/Arduino_LUFA_Bootloader/LUFA/Drivers/USB/Core/AVR8/../AVR8/../AVR8/Endpoint_AVR8.h **** 			/** Stalls the current endpoint, indicating to the host that a logical problem occurred with the
 538:../../LUFA-Libs/Arduino_LUFA_Bootloader/LUFA/Drivers/USB/Core/AVR8/../AVR8/../AVR8/Endpoint_AVR8.h **** 			 *  indicated endpoint and that the current transfer sequence should be aborted. This provides a
 539:../../LUFA-Libs/Arduino_LUFA_Bootloader/LUFA/Drivers/USB/Core/AVR8/../AVR8/../AVR8/Endpoint_AVR8.h **** 			 *  way for devices to indicate invalid commands to the host so that the current transfer can be
 540:../../LUFA-Libs/Arduino_LUFA_Bootloader/LUFA/Drivers/USB/Core/AVR8/../AVR8/../AVR8/Endpoint_AVR8.h **** 			 *  aborted and the host can begin its own recovery sequence.
 541:../../LUFA-Libs/Arduino_LUFA_Bootloader/LUFA/Drivers/USB/Core/AVR8/../AVR8/../AVR8/Endpoint_AVR8.h **** 			 *
 542:../../LUFA-Libs/Arduino_LUFA_Bootloader/LUFA/Drivers/USB/Core/AVR8/../AVR8/../AVR8/Endpoint_AVR8.h **** 			 *  The currently selected endpoint remains stalled until either the \ref Endpoint_ClearStall() 
 543:../../LUFA-Libs/Arduino_LUFA_Bootloader/LUFA/Drivers/USB/Core/AVR8/../AVR8/../AVR8/Endpoint_AVR8.h **** 			 *  is called, or the host issues a CLEAR FEATURE request to the device for the currently select
 544:../../LUFA-Libs/Arduino_LUFA_Bootloader/LUFA/Drivers/USB/Core/AVR8/../AVR8/../AVR8/Endpoint_AVR8.h **** 			 *  endpoint.
 545:../../LUFA-Libs/Arduino_LUFA_Bootloader/LUFA/Drivers/USB/Core/AVR8/../AVR8/../AVR8/Endpoint_AVR8.h **** 			 *
 546:../../LUFA-Libs/Arduino_LUFA_Bootloader/LUFA/Drivers/USB/Core/AVR8/../AVR8/../AVR8/Endpoint_AVR8.h **** 			 *  \ingroup Group_EndpointPacketManagement_AVR8
 547:../../LUFA-Libs/Arduino_LUFA_Bootloader/LUFA/Drivers/USB/Core/AVR8/../AVR8/../AVR8/Endpoint_AVR8.h **** 			 */
 548:../../LUFA-Libs/Arduino_LUFA_Bootloader/LUFA/Drivers/USB/Core/AVR8/../AVR8/../AVR8/Endpoint_AVR8.h **** 			static inline void Endpoint_StallTransaction(void) ATTR_ALWAYS_INLINE;
 549:../../LUFA-Libs/Arduino_LUFA_Bootloader/LUFA/Drivers/USB/Core/AVR8/../AVR8/../AVR8/Endpoint_AVR8.h **** 			static inline void Endpoint_StallTransaction(void)
 550:../../LUFA-Libs/Arduino_LUFA_Bootloader/LUFA/Drivers/USB/Core/AVR8/../AVR8/../AVR8/Endpoint_AVR8.h **** 			{
 551:../../LUFA-Libs/Arduino_LUFA_Bootloader/LUFA/Drivers/USB/Core/AVR8/../AVR8/../AVR8/Endpoint_AVR8.h **** 				UECONX |= (1 << STALLRQ);
 552:../../LUFA-Libs/Arduino_LUFA_Bootloader/LUFA/Drivers/USB/Core/AVR8/../AVR8/../AVR8/Endpoint_AVR8.h **** 			}
 553:../../LUFA-Libs/Arduino_LUFA_Bootloader/LUFA/Drivers/USB/Core/AVR8/../AVR8/../AVR8/Endpoint_AVR8.h **** 
 554:../../LUFA-Libs/Arduino_LUFA_Bootloader/LUFA/Drivers/USB/Core/AVR8/../AVR8/../AVR8/Endpoint_AVR8.h **** 			/** Clears the STALL condition on the currently selected endpoint.
 555:../../LUFA-Libs/Arduino_LUFA_Bootloader/LUFA/Drivers/USB/Core/AVR8/../AVR8/../AVR8/Endpoint_AVR8.h **** 			 *
 556:../../LUFA-Libs/Arduino_LUFA_Bootloader/LUFA/Drivers/USB/Core/AVR8/../AVR8/../AVR8/Endpoint_AVR8.h **** 			 *  \ingroup Group_EndpointPacketManagement_AVR8
 557:../../LUFA-Libs/Arduino_LUFA_Bootloader/LUFA/Drivers/USB/Core/AVR8/../AVR8/../AVR8/Endpoint_AVR8.h **** 			 */
 558:../../LUFA-Libs/Arduino_LUFA_Bootloader/LUFA/Drivers/USB/Core/AVR8/../AVR8/../AVR8/Endpoint_AVR8.h **** 			static inline void Endpoint_ClearStall(void) ATTR_ALWAYS_INLINE;
 559:../../LUFA-Libs/Arduino_LUFA_Bootloader/LUFA/Drivers/USB/Core/AVR8/../AVR8/../AVR8/Endpoint_AVR8.h **** 			static inline void Endpoint_ClearStall(void)
 560:../../LUFA-Libs/Arduino_LUFA_Bootloader/LUFA/Drivers/USB/Core/AVR8/../AVR8/../AVR8/Endpoint_AVR8.h **** 			{
 561:../../LUFA-Libs/Arduino_LUFA_Bootloader/LUFA/Drivers/USB/Core/AVR8/../AVR8/../AVR8/Endpoint_AVR8.h **** 				UECONX |= (1 << STALLRQC);
 562:../../LUFA-Libs/Arduino_LUFA_Bootloader/LUFA/Drivers/USB/Core/AVR8/../AVR8/../AVR8/Endpoint_AVR8.h **** 			}
 563:../../LUFA-Libs/Arduino_LUFA_Bootloader/LUFA/Drivers/USB/Core/AVR8/../AVR8/../AVR8/Endpoint_AVR8.h **** 
 564:../../LUFA-Libs/Arduino_LUFA_Bootloader/LUFA/Drivers/USB/Core/AVR8/../AVR8/../AVR8/Endpoint_AVR8.h **** 			/** Determines if the currently selected endpoint is stalled, false otherwise.
 565:../../LUFA-Libs/Arduino_LUFA_Bootloader/LUFA/Drivers/USB/Core/AVR8/../AVR8/../AVR8/Endpoint_AVR8.h **** 			 *
 566:../../LUFA-Libs/Arduino_LUFA_Bootloader/LUFA/Drivers/USB/Core/AVR8/../AVR8/../AVR8/Endpoint_AVR8.h **** 			 *  \ingroup Group_EndpointPacketManagement_AVR8
 567:../../LUFA-Libs/Arduino_LUFA_Bootloader/LUFA/Drivers/USB/Core/AVR8/../AVR8/../AVR8/Endpoint_AVR8.h **** 			 *
 568:../../LUFA-Libs/Arduino_LUFA_Bootloader/LUFA/Drivers/USB/Core/AVR8/../AVR8/../AVR8/Endpoint_AVR8.h **** 			 *  \return Boolean \c true if the currently selected endpoint is stalled, \c false otherwise.
 569:../../LUFA-Libs/Arduino_LUFA_Bootloader/LUFA/Drivers/USB/Core/AVR8/../AVR8/../AVR8/Endpoint_AVR8.h **** 			 */
 570:../../LUFA-Libs/Arduino_LUFA_Bootloader/LUFA/Drivers/USB/Core/AVR8/../AVR8/../AVR8/Endpoint_AVR8.h **** 			static inline bool Endpoint_IsStalled(void) ATTR_WARN_UNUSED_RESULT ATTR_ALWAYS_INLINE;
 571:../../LUFA-Libs/Arduino_LUFA_Bootloader/LUFA/Drivers/USB/Core/AVR8/../AVR8/../AVR8/Endpoint_AVR8.h **** 			static inline bool Endpoint_IsStalled(void)
 572:../../LUFA-Libs/Arduino_LUFA_Bootloader/LUFA/Drivers/USB/Core/AVR8/../AVR8/../AVR8/Endpoint_AVR8.h **** 			{
 573:../../LUFA-Libs/Arduino_LUFA_Bootloader/LUFA/Drivers/USB/Core/AVR8/../AVR8/../AVR8/Endpoint_AVR8.h **** 				return ((UECONX & (1 << STALLRQ)) ? true : false);
 574:../../LUFA-Libs/Arduino_LUFA_Bootloader/LUFA/Drivers/USB/Core/AVR8/../AVR8/../AVR8/Endpoint_AVR8.h **** 			}
 575:../../LUFA-Libs/Arduino_LUFA_Bootloader/LUFA/Drivers/USB/Core/AVR8/../AVR8/../AVR8/Endpoint_AVR8.h **** 
 576:../../LUFA-Libs/Arduino_LUFA_Bootloader/LUFA/Drivers/USB/Core/AVR8/../AVR8/../AVR8/Endpoint_AVR8.h **** 			/** Resets the data toggle of the currently selected endpoint. */
 577:../../LUFA-Libs/Arduino_LUFA_Bootloader/LUFA/Drivers/USB/Core/AVR8/../AVR8/../AVR8/Endpoint_AVR8.h **** 			static inline void Endpoint_ResetDataToggle(void) ATTR_ALWAYS_INLINE;
 578:../../LUFA-Libs/Arduino_LUFA_Bootloader/LUFA/Drivers/USB/Core/AVR8/../AVR8/../AVR8/Endpoint_AVR8.h **** 			static inline void Endpoint_ResetDataToggle(void)
 579:../../LUFA-Libs/Arduino_LUFA_Bootloader/LUFA/Drivers/USB/Core/AVR8/../AVR8/../AVR8/Endpoint_AVR8.h **** 			{
 580:../../LUFA-Libs/Arduino_LUFA_Bootloader/LUFA/Drivers/USB/Core/AVR8/../AVR8/../AVR8/Endpoint_AVR8.h **** 				UECONX |= (1 << RSTDT);
 581:../../LUFA-Libs/Arduino_LUFA_Bootloader/LUFA/Drivers/USB/Core/AVR8/../AVR8/../AVR8/Endpoint_AVR8.h **** 			}
 582:../../LUFA-Libs/Arduino_LUFA_Bootloader/LUFA/Drivers/USB/Core/AVR8/../AVR8/../AVR8/Endpoint_AVR8.h **** 
 583:../../LUFA-Libs/Arduino_LUFA_Bootloader/LUFA/Drivers/USB/Core/AVR8/../AVR8/../AVR8/Endpoint_AVR8.h **** 			/** Determines the currently selected endpoint's direction.
 584:../../LUFA-Libs/Arduino_LUFA_Bootloader/LUFA/Drivers/USB/Core/AVR8/../AVR8/../AVR8/Endpoint_AVR8.h **** 			 *
 585:../../LUFA-Libs/Arduino_LUFA_Bootloader/LUFA/Drivers/USB/Core/AVR8/../AVR8/../AVR8/Endpoint_AVR8.h **** 			 *  \return The currently selected endpoint's direction, as a \c ENDPOINT_DIR_* mask.
 586:../../LUFA-Libs/Arduino_LUFA_Bootloader/LUFA/Drivers/USB/Core/AVR8/../AVR8/../AVR8/Endpoint_AVR8.h **** 			 */
 587:../../LUFA-Libs/Arduino_LUFA_Bootloader/LUFA/Drivers/USB/Core/AVR8/../AVR8/../AVR8/Endpoint_AVR8.h **** 			static inline uint8_t Endpoint_GetEndpointDirection(void) ATTR_WARN_UNUSED_RESULT ATTR_ALWAYS_IN
 588:../../LUFA-Libs/Arduino_LUFA_Bootloader/LUFA/Drivers/USB/Core/AVR8/../AVR8/../AVR8/Endpoint_AVR8.h **** 			static inline uint8_t Endpoint_GetEndpointDirection(void)
 589:../../LUFA-Libs/Arduino_LUFA_Bootloader/LUFA/Drivers/USB/Core/AVR8/../AVR8/../AVR8/Endpoint_AVR8.h **** 			{
 590:../../LUFA-Libs/Arduino_LUFA_Bootloader/LUFA/Drivers/USB/Core/AVR8/../AVR8/../AVR8/Endpoint_AVR8.h **** 				return (UECFG0X & (1 << EPDIR)) ? ENDPOINT_DIR_IN : ENDPOINT_DIR_OUT;
 591:../../LUFA-Libs/Arduino_LUFA_Bootloader/LUFA/Drivers/USB/Core/AVR8/../AVR8/../AVR8/Endpoint_AVR8.h **** 			}
 592:../../LUFA-Libs/Arduino_LUFA_Bootloader/LUFA/Drivers/USB/Core/AVR8/../AVR8/../AVR8/Endpoint_AVR8.h **** 
 593:../../LUFA-Libs/Arduino_LUFA_Bootloader/LUFA/Drivers/USB/Core/AVR8/../AVR8/../AVR8/Endpoint_AVR8.h **** 			/** Sets the direction of the currently selected endpoint.
 594:../../LUFA-Libs/Arduino_LUFA_Bootloader/LUFA/Drivers/USB/Core/AVR8/../AVR8/../AVR8/Endpoint_AVR8.h **** 			 *
 595:../../LUFA-Libs/Arduino_LUFA_Bootloader/LUFA/Drivers/USB/Core/AVR8/../AVR8/../AVR8/Endpoint_AVR8.h **** 			 *  \param[in] DirectionMask  New endpoint direction, as a \c ENDPOINT_DIR_* mask.
 596:../../LUFA-Libs/Arduino_LUFA_Bootloader/LUFA/Drivers/USB/Core/AVR8/../AVR8/../AVR8/Endpoint_AVR8.h **** 			 */
 597:../../LUFA-Libs/Arduino_LUFA_Bootloader/LUFA/Drivers/USB/Core/AVR8/../AVR8/../AVR8/Endpoint_AVR8.h **** 			static inline void Endpoint_SetEndpointDirection(const uint8_t DirectionMask) ATTR_ALWAYS_INLINE
 598:../../LUFA-Libs/Arduino_LUFA_Bootloader/LUFA/Drivers/USB/Core/AVR8/../AVR8/../AVR8/Endpoint_AVR8.h **** 			static inline void Endpoint_SetEndpointDirection(const uint8_t DirectionMask)
 599:../../LUFA-Libs/Arduino_LUFA_Bootloader/LUFA/Drivers/USB/Core/AVR8/../AVR8/../AVR8/Endpoint_AVR8.h **** 			{
 600:../../LUFA-Libs/Arduino_LUFA_Bootloader/LUFA/Drivers/USB/Core/AVR8/../AVR8/../AVR8/Endpoint_AVR8.h **** 				UECFG0X = ((UECFG0X & ~(1 << EPDIR)) | (DirectionMask ? (1 << EPDIR) : 0));
 601:../../LUFA-Libs/Arduino_LUFA_Bootloader/LUFA/Drivers/USB/Core/AVR8/../AVR8/../AVR8/Endpoint_AVR8.h **** 			}
 602:../../LUFA-Libs/Arduino_LUFA_Bootloader/LUFA/Drivers/USB/Core/AVR8/../AVR8/../AVR8/Endpoint_AVR8.h **** 
 603:../../LUFA-Libs/Arduino_LUFA_Bootloader/LUFA/Drivers/USB/Core/AVR8/../AVR8/../AVR8/Endpoint_AVR8.h **** 			/** Reads one byte from the currently selected endpoint's bank, for OUT direction endpoints.
 604:../../LUFA-Libs/Arduino_LUFA_Bootloader/LUFA/Drivers/USB/Core/AVR8/../AVR8/../AVR8/Endpoint_AVR8.h **** 			 *
 605:../../LUFA-Libs/Arduino_LUFA_Bootloader/LUFA/Drivers/USB/Core/AVR8/../AVR8/../AVR8/Endpoint_AVR8.h **** 			 *  \ingroup Group_EndpointPrimitiveRW_AVR8
 606:../../LUFA-Libs/Arduino_LUFA_Bootloader/LUFA/Drivers/USB/Core/AVR8/../AVR8/../AVR8/Endpoint_AVR8.h **** 			 *
 607:../../LUFA-Libs/Arduino_LUFA_Bootloader/LUFA/Drivers/USB/Core/AVR8/../AVR8/../AVR8/Endpoint_AVR8.h **** 			 *  \return Next byte in the currently selected endpoint's FIFO buffer.
 608:../../LUFA-Libs/Arduino_LUFA_Bootloader/LUFA/Drivers/USB/Core/AVR8/../AVR8/../AVR8/Endpoint_AVR8.h **** 			 */
 609:../../LUFA-Libs/Arduino_LUFA_Bootloader/LUFA/Drivers/USB/Core/AVR8/../AVR8/../AVR8/Endpoint_AVR8.h **** 			static inline uint8_t Endpoint_Read_8(void) ATTR_WARN_UNUSED_RESULT ATTR_ALWAYS_INLINE;
 610:../../LUFA-Libs/Arduino_LUFA_Bootloader/LUFA/Drivers/USB/Core/AVR8/../AVR8/../AVR8/Endpoint_AVR8.h **** 			static inline uint8_t Endpoint_Read_8(void)
 611:../../LUFA-Libs/Arduino_LUFA_Bootloader/LUFA/Drivers/USB/Core/AVR8/../AVR8/../AVR8/Endpoint_AVR8.h **** 			{
 612:../../LUFA-Libs/Arduino_LUFA_Bootloader/LUFA/Drivers/USB/Core/AVR8/../AVR8/../AVR8/Endpoint_AVR8.h **** 				return UEDATX;
 613:../../LUFA-Libs/Arduino_LUFA_Bootloader/LUFA/Drivers/USB/Core/AVR8/../AVR8/../AVR8/Endpoint_AVR8.h **** 			}
 614:../../LUFA-Libs/Arduino_LUFA_Bootloader/LUFA/Drivers/USB/Core/AVR8/../AVR8/../AVR8/Endpoint_AVR8.h **** 
 615:../../LUFA-Libs/Arduino_LUFA_Bootloader/LUFA/Drivers/USB/Core/AVR8/../AVR8/../AVR8/Endpoint_AVR8.h **** 			/** Writes one byte to the currently selected endpoint's bank, for IN direction endpoints.
 616:../../LUFA-Libs/Arduino_LUFA_Bootloader/LUFA/Drivers/USB/Core/AVR8/../AVR8/../AVR8/Endpoint_AVR8.h **** 			 *
 617:../../LUFA-Libs/Arduino_LUFA_Bootloader/LUFA/Drivers/USB/Core/AVR8/../AVR8/../AVR8/Endpoint_AVR8.h **** 			 *  \ingroup Group_EndpointPrimitiveRW_AVR8
 618:../../LUFA-Libs/Arduino_LUFA_Bootloader/LUFA/Drivers/USB/Core/AVR8/../AVR8/../AVR8/Endpoint_AVR8.h **** 			 *
 619:../../LUFA-Libs/Arduino_LUFA_Bootloader/LUFA/Drivers/USB/Core/AVR8/../AVR8/../AVR8/Endpoint_AVR8.h **** 			 *  \param[in] Data  Data to write into the the currently selected endpoint's FIFO buffer.
 620:../../LUFA-Libs/Arduino_LUFA_Bootloader/LUFA/Drivers/USB/Core/AVR8/../AVR8/../AVR8/Endpoint_AVR8.h **** 			 */
 621:../../LUFA-Libs/Arduino_LUFA_Bootloader/LUFA/Drivers/USB/Core/AVR8/../AVR8/../AVR8/Endpoint_AVR8.h **** 			static inline void Endpoint_Write_8(const uint8_t Data) ATTR_ALWAYS_INLINE;
 622:../../LUFA-Libs/Arduino_LUFA_Bootloader/LUFA/Drivers/USB/Core/AVR8/../AVR8/../AVR8/Endpoint_AVR8.h **** 			static inline void Endpoint_Write_8(const uint8_t Data)
 623:../../LUFA-Libs/Arduino_LUFA_Bootloader/LUFA/Drivers/USB/Core/AVR8/../AVR8/../AVR8/Endpoint_AVR8.h **** 			{
 624:../../LUFA-Libs/Arduino_LUFA_Bootloader/LUFA/Drivers/USB/Core/AVR8/../AVR8/../AVR8/Endpoint_AVR8.h **** 				UEDATX = Data;
 625:../../LUFA-Libs/Arduino_LUFA_Bootloader/LUFA/Drivers/USB/Core/AVR8/../AVR8/../AVR8/Endpoint_AVR8.h **** 			}
 626:../../LUFA-Libs/Arduino_LUFA_Bootloader/LUFA/Drivers/USB/Core/AVR8/../AVR8/../AVR8/Endpoint_AVR8.h **** 
 627:../../LUFA-Libs/Arduino_LUFA_Bootloader/LUFA/Drivers/USB/Core/AVR8/../AVR8/../AVR8/Endpoint_AVR8.h **** 			/** Discards one byte from the currently selected endpoint's bank, for OUT direction endpoints.
 628:../../LUFA-Libs/Arduino_LUFA_Bootloader/LUFA/Drivers/USB/Core/AVR8/../AVR8/../AVR8/Endpoint_AVR8.h **** 			 *
 629:../../LUFA-Libs/Arduino_LUFA_Bootloader/LUFA/Drivers/USB/Core/AVR8/../AVR8/../AVR8/Endpoint_AVR8.h **** 			 *  \ingroup Group_EndpointPrimitiveRW_AVR8
 630:../../LUFA-Libs/Arduino_LUFA_Bootloader/LUFA/Drivers/USB/Core/AVR8/../AVR8/../AVR8/Endpoint_AVR8.h **** 			 */
 631:../../LUFA-Libs/Arduino_LUFA_Bootloader/LUFA/Drivers/USB/Core/AVR8/../AVR8/../AVR8/Endpoint_AVR8.h **** 			static inline void Endpoint_Discard_8(void) ATTR_ALWAYS_INLINE;
 632:../../LUFA-Libs/Arduino_LUFA_Bootloader/LUFA/Drivers/USB/Core/AVR8/../AVR8/../AVR8/Endpoint_AVR8.h **** 			static inline void Endpoint_Discard_8(void)
 633:../../LUFA-Libs/Arduino_LUFA_Bootloader/LUFA/Drivers/USB/Core/AVR8/../AVR8/../AVR8/Endpoint_AVR8.h **** 			{
 634:../../LUFA-Libs/Arduino_LUFA_Bootloader/LUFA/Drivers/USB/Core/AVR8/../AVR8/../AVR8/Endpoint_AVR8.h **** 				uint8_t Dummy;
 635:../../LUFA-Libs/Arduino_LUFA_Bootloader/LUFA/Drivers/USB/Core/AVR8/../AVR8/../AVR8/Endpoint_AVR8.h **** 
 636:../../LUFA-Libs/Arduino_LUFA_Bootloader/LUFA/Drivers/USB/Core/AVR8/../AVR8/../AVR8/Endpoint_AVR8.h **** 				Dummy = UEDATX;
 127               		.loc 2 636 0
 128 0068 8091 F100 		lds r24,241
 129               	.LBE261:
 130               	.LBE260:
  64:../../LUFA-Libs/Arduino_LUFA_Bootloader/LUFA/Drivers/USB/Core/AVR8/EndpointStream_AVR8.c **** 			  return ErrorCode;
  65:../../LUFA-Libs/Arduino_LUFA_Bootloader/LUFA/Drivers/USB/Core/AVR8/EndpointStream_AVR8.c **** 		}
  66:../../LUFA-Libs/Arduino_LUFA_Bootloader/LUFA/Drivers/USB/Core/AVR8/EndpointStream_AVR8.c **** 		else
  67:../../LUFA-Libs/Arduino_LUFA_Bootloader/LUFA/Drivers/USB/Core/AVR8/EndpointStream_AVR8.c **** 		{
  68:../../LUFA-Libs/Arduino_LUFA_Bootloader/LUFA/Drivers/USB/Core/AVR8/EndpointStream_AVR8.c **** 			Endpoint_Discard_8();
  69:../../LUFA-Libs/Arduino_LUFA_Bootloader/LUFA/Drivers/USB/Core/AVR8/EndpointStream_AVR8.c **** 
  70:../../LUFA-Libs/Arduino_LUFA_Bootloader/LUFA/Drivers/USB/Core/AVR8/EndpointStream_AVR8.c **** 			Length--;
 131               		.loc 1 70 0
 132 006c 2197      		sbiw r28,1
 133               	.LVL8:
  71:../../LUFA-Libs/Arduino_LUFA_Bootloader/LUFA/Drivers/USB/Core/AVR8/EndpointStream_AVR8.c **** 			BytesInTransfer++;
 134               		.loc 1 71 0
 135 006e 0894      		sec
 136 0070 E11C      		adc r14,__zero_reg__
 137 0072 F11C      		adc r15,__zero_reg__
 138               	.LVL9:
 139               	.L10:
  51:../../LUFA-Libs/Arduino_LUFA_Bootloader/LUFA/Drivers/USB/Core/AVR8/EndpointStream_AVR8.c **** 	while (Length)
 140               		.loc 1 51 0 discriminator 1
 141 0074 2097      		sbiw r28,0
 142 0076 01F4      		brne .L8
 143 0078 00C0      		rjmp .L2
 144               	.LVL10:
 145               	.L11:
  63:../../LUFA-Libs/Arduino_LUFA_Bootloader/LUFA/Drivers/USB/Core/AVR8/EndpointStream_AVR8.c **** 			if ((ErrorCode = Endpoint_WaitUntilReady()))
 146               		.loc 1 63 0
 147 007a D82E      		mov r13,r24
 148               	.LVL11:
 149               	.L2:
  72:../../LUFA-Libs/Arduino_LUFA_Bootloader/LUFA/Drivers/USB/Core/AVR8/EndpointStream_AVR8.c **** 		}
  73:../../LUFA-Libs/Arduino_LUFA_Bootloader/LUFA/Drivers/USB/Core/AVR8/EndpointStream_AVR8.c **** 	}
  74:../../LUFA-Libs/Arduino_LUFA_Bootloader/LUFA/Drivers/USB/Core/AVR8/EndpointStream_AVR8.c **** 	
  75:../../LUFA-Libs/Arduino_LUFA_Bootloader/LUFA/Drivers/USB/Core/AVR8/EndpointStream_AVR8.c **** 	return ENDPOINT_RWSTREAM_NoError;
  76:../../LUFA-Libs/Arduino_LUFA_Bootloader/LUFA/Drivers/USB/Core/AVR8/EndpointStream_AVR8.c **** }
 150               		.loc 1 76 0
 151 007c 8D2D      		mov r24,r13
 152               	/* epilogue start */
 153 007e DF91      		pop r29
 154 0080 CF91      		pop r28
 155               	.LVL12:
 156 0082 1F91      		pop r17
 157 0084 0F91      		pop r16
 158               	.LVL13:
 159 0086 FF90      		pop r15
 160 0088 EF90      		pop r14
 161 008a DF90      		pop r13
 162 008c 0895      		ret
 163               		.cfi_endproc
 164               	.LFE81:
 166               		.section	.text.Endpoint_Null_Stream,"ax",@progbits
 167               	.global	Endpoint_Null_Stream
 169               	Endpoint_Null_Stream:
 170               	.LFB82:
  77:../../LUFA-Libs/Arduino_LUFA_Bootloader/LUFA/Drivers/USB/Core/AVR8/EndpointStream_AVR8.c **** 
  78:../../LUFA-Libs/Arduino_LUFA_Bootloader/LUFA/Drivers/USB/Core/AVR8/EndpointStream_AVR8.c **** uint8_t Endpoint_Null_Stream(uint16_t Length,
  79:../../LUFA-Libs/Arduino_LUFA_Bootloader/LUFA/Drivers/USB/Core/AVR8/EndpointStream_AVR8.c ****                              uint16_t* const BytesProcessed)
  80:../../LUFA-Libs/Arduino_LUFA_Bootloader/LUFA/Drivers/USB/Core/AVR8/EndpointStream_AVR8.c **** {
 171               		.loc 1 80 0
 172               		.cfi_startproc
 173               	.LVL14:
 174 0000 DF92      		push r13
 175               	.LCFI7:
 176               		.cfi_def_cfa_offset 3
 177               		.cfi_offset 13, -2
 178 0002 EF92      		push r14
 179               	.LCFI8:
 180               		.cfi_def_cfa_offset 4
 181               		.cfi_offset 14, -3
 182 0004 FF92      		push r15
 183               	.LCFI9:
 184               		.cfi_def_cfa_offset 5
 185               		.cfi_offset 15, -4
 186 0006 0F93      		push r16
 187               	.LCFI10:
 188               		.cfi_def_cfa_offset 6
 189               		.cfi_offset 16, -5
 190 0008 1F93      		push r17
 191               	.LCFI11:
 192               		.cfi_def_cfa_offset 7
 193               		.cfi_offset 17, -6
 194 000a CF93      		push r28
 195               	.LCFI12:
 196               		.cfi_def_cfa_offset 8
 197               		.cfi_offset 28, -7
 198 000c DF93      		push r29
 199               	.LCFI13:
 200               		.cfi_def_cfa_offset 9
 201               		.cfi_offset 29, -8
 202               	/* prologue: function */
 203               	/* frame size = 0 */
 204               	/* stack size = 7 */
 205               	.L__stack_usage = 7
 206 000e EC01      		movw r28,r24
 207 0010 8B01      		movw r16,r22
 208               	.LVL15:
  81:../../LUFA-Libs/Arduino_LUFA_Bootloader/LUFA/Drivers/USB/Core/AVR8/EndpointStream_AVR8.c **** 	uint8_t  ErrorCode;
  82:../../LUFA-Libs/Arduino_LUFA_Bootloader/LUFA/Drivers/USB/Core/AVR8/EndpointStream_AVR8.c **** 	uint16_t BytesInTransfer = 0;
  83:../../LUFA-Libs/Arduino_LUFA_Bootloader/LUFA/Drivers/USB/Core/AVR8/EndpointStream_AVR8.c **** 	
  84:../../LUFA-Libs/Arduino_LUFA_Bootloader/LUFA/Drivers/USB/Core/AVR8/EndpointStream_AVR8.c **** 	if ((ErrorCode = Endpoint_WaitUntilReady()))
 209               		.loc 1 84 0
 210 0012 0E94 0000 		call Endpoint_WaitUntilReady
 211               	.LVL16:
 212 0016 D82E      		mov r13,r24
 213               	.LVL17:
 214 0018 8823      		tst r24
 215 001a 01F4      		brne .L13
  85:../../LUFA-Libs/Arduino_LUFA_Bootloader/LUFA/Drivers/USB/Core/AVR8/EndpointStream_AVR8.c **** 	  return ErrorCode;
  86:../../LUFA-Libs/Arduino_LUFA_Bootloader/LUFA/Drivers/USB/Core/AVR8/EndpointStream_AVR8.c **** 	  
  87:../../LUFA-Libs/Arduino_LUFA_Bootloader/LUFA/Drivers/USB/Core/AVR8/EndpointStream_AVR8.c **** 	if (BytesProcessed != NULL)
 216               		.loc 1 87 0
 217 001c 0115      		cp r16,__zero_reg__
 218 001e 1105      		cpc r17,__zero_reg__
 219 0020 01F0      		breq .L14
  88:../../LUFA-Libs/Arduino_LUFA_Bootloader/LUFA/Drivers/USB/Core/AVR8/EndpointStream_AVR8.c **** 	  Length -= *BytesProcessed;
 220               		.loc 1 88 0
 221 0022 F801      		movw r30,r16
 222 0024 2081      		ld r18,Z
 223 0026 3181      		ldd r19,Z+1
 224 0028 C21B      		sub r28,r18
 225 002a D30B      		sbc r29,r19
 226               	.LVL18:
 227               	.L14:
  80:../../LUFA-Libs/Arduino_LUFA_Bootloader/LUFA/Drivers/USB/Core/AVR8/EndpointStream_AVR8.c **** {
 228               		.loc 1 80 0 discriminator 1
 229 002c EE24      		clr r14
 230 002e FF24      		clr r15
 231 0030 00C0      		rjmp .L21
 232               	.LVL19:
 233               	.L19:
 234               	.LBB262:
 235               	.LBB263:
 420:../../LUFA-Libs/Arduino_LUFA_Bootloader/LUFA/Drivers/USB/Core/AVR8/../AVR8/../AVR8/Endpoint_AVR8.h **** 				return ((UEINTX & (1 << RWAL)) ? true : false);
 236               		.loc 2 420 0
 237 0032 8091 E800 		lds r24,232
 238               	.LBE263:
 239               	.LBE262:
  89:../../LUFA-Libs/Arduino_LUFA_Bootloader/LUFA/Drivers/USB/Core/AVR8/EndpointStream_AVR8.c **** 
  90:../../LUFA-Libs/Arduino_LUFA_Bootloader/LUFA/Drivers/USB/Core/AVR8/EndpointStream_AVR8.c **** 	while (Length)
  91:../../LUFA-Libs/Arduino_LUFA_Bootloader/LUFA/Drivers/USB/Core/AVR8/EndpointStream_AVR8.c **** 	{
  92:../../LUFA-Libs/Arduino_LUFA_Bootloader/LUFA/Drivers/USB/Core/AVR8/EndpointStream_AVR8.c **** 		if (!(Endpoint_IsReadWriteAllowed()))
 240               		.loc 1 92 0
 241 0036 85FD      		sbrc r24,5
 242 0038 00C0      		rjmp .L16
 243               	.LBB264:
 244               	.LBB265:
 516:../../LUFA-Libs/Arduino_LUFA_Bootloader/LUFA/Drivers/USB/Core/AVR8/../AVR8/../AVR8/Endpoint_AVR8.h **** 					UEINTX &= ~((1 << TXINI) | (1 << FIFOCON));
 245               		.loc 2 516 0
 246 003a 8091 E800 		lds r24,232
 247 003e 8E77      		andi r24,lo8(126)
 248 0040 8093 E800 		sts 232,r24
 249               	.LBE265:
 250               	.LBE264:
  93:../../LUFA-Libs/Arduino_LUFA_Bootloader/LUFA/Drivers/USB/Core/AVR8/EndpointStream_AVR8.c **** 		{
  94:../../LUFA-Libs/Arduino_LUFA_Bootloader/LUFA/Drivers/USB/Core/AVR8/EndpointStream_AVR8.c **** 			Endpoint_ClearIN();
  95:../../LUFA-Libs/Arduino_LUFA_Bootloader/LUFA/Drivers/USB/Core/AVR8/EndpointStream_AVR8.c **** 
  96:../../LUFA-Libs/Arduino_LUFA_Bootloader/LUFA/Drivers/USB/Core/AVR8/EndpointStream_AVR8.c **** 			if (BytesProcessed != NULL)
 251               		.loc 1 96 0
 252 0044 0115      		cp r16,__zero_reg__
 253 0046 1105      		cpc r17,__zero_reg__
 254 0048 01F0      		breq .L17
  97:../../LUFA-Libs/Arduino_LUFA_Bootloader/LUFA/Drivers/USB/Core/AVR8/EndpointStream_AVR8.c **** 			{
  98:../../LUFA-Libs/Arduino_LUFA_Bootloader/LUFA/Drivers/USB/Core/AVR8/EndpointStream_AVR8.c **** 				*BytesProcessed += BytesInTransfer;
 255               		.loc 1 98 0
 256 004a F801      		movw r30,r16
 257 004c 8081      		ld r24,Z
 258 004e 9181      		ldd r25,Z+1
 259 0050 8E0D      		add r24,r14
 260 0052 9F1D      		adc r25,r15
 261 0054 9183      		std Z+1,r25
 262 0056 8083      		st Z,r24
  99:../../LUFA-Libs/Arduino_LUFA_Bootloader/LUFA/Drivers/USB/Core/AVR8/EndpointStream_AVR8.c **** 				return ENDPOINT_RWSTREAM_IncompleteTransfer;
 263               		.loc 1 99 0
 264 0058 35E0      		ldi r19,lo8(5)
 265 005a D32E      		mov r13,r19
 266 005c 00C0      		rjmp .L13
 267               	.L17:
 100:../../LUFA-Libs/Arduino_LUFA_Bootloader/LUFA/Drivers/USB/Core/AVR8/EndpointStream_AVR8.c **** 			}
 101:../../LUFA-Libs/Arduino_LUFA_Bootloader/LUFA/Drivers/USB/Core/AVR8/EndpointStream_AVR8.c **** 
 102:../../LUFA-Libs/Arduino_LUFA_Bootloader/LUFA/Drivers/USB/Core/AVR8/EndpointStream_AVR8.c **** 			if ((ErrorCode = Endpoint_WaitUntilReady()))
 268               		.loc 1 102 0
 269 005e 0E94 0000 		call Endpoint_WaitUntilReady
 270               	.LVL20:
 271 0062 8823      		tst r24
 272 0064 01F0      		breq .L21
 273 0066 00C0      		rjmp .L22
 274               	.LVL21:
 275               	.L16:
 276               	.LBB266:
 277               	.LBB267:
 624:../../LUFA-Libs/Arduino_LUFA_Bootloader/LUFA/Drivers/USB/Core/AVR8/../AVR8/../AVR8/Endpoint_AVR8.h **** 				UEDATX = Data;
 278               		.loc 2 624 0
 279 0068 1092 F100 		sts 241,__zero_reg__
 280               	.LBE267:
 281               	.LBE266:
 103:../../LUFA-Libs/Arduino_LUFA_Bootloader/LUFA/Drivers/USB/Core/AVR8/EndpointStream_AVR8.c **** 			  return ErrorCode;
 104:../../LUFA-Libs/Arduino_LUFA_Bootloader/LUFA/Drivers/USB/Core/AVR8/EndpointStream_AVR8.c **** 		}
 105:../../LUFA-Libs/Arduino_LUFA_Bootloader/LUFA/Drivers/USB/Core/AVR8/EndpointStream_AVR8.c **** 		else
 106:../../LUFA-Libs/Arduino_LUFA_Bootloader/LUFA/Drivers/USB/Core/AVR8/EndpointStream_AVR8.c **** 		{
 107:../../LUFA-Libs/Arduino_LUFA_Bootloader/LUFA/Drivers/USB/Core/AVR8/EndpointStream_AVR8.c **** 			Endpoint_Write_8(0);
 108:../../LUFA-Libs/Arduino_LUFA_Bootloader/LUFA/Drivers/USB/Core/AVR8/EndpointStream_AVR8.c **** 
 109:../../LUFA-Libs/Arduino_LUFA_Bootloader/LUFA/Drivers/USB/Core/AVR8/EndpointStream_AVR8.c **** 			Length--;
 282               		.loc 1 109 0
 283 006c 2197      		sbiw r28,1
 284               	.LVL22:
 110:../../LUFA-Libs/Arduino_LUFA_Bootloader/LUFA/Drivers/USB/Core/AVR8/EndpointStream_AVR8.c **** 			BytesInTransfer++;
 285               		.loc 1 110 0
 286 006e 0894      		sec
 287 0070 E11C      		adc r14,__zero_reg__
 288 0072 F11C      		adc r15,__zero_reg__
 289               	.LVL23:
 290               	.L21:
  90:../../LUFA-Libs/Arduino_LUFA_Bootloader/LUFA/Drivers/USB/Core/AVR8/EndpointStream_AVR8.c **** 	while (Length)
 291               		.loc 1 90 0 discriminator 1
 292 0074 2097      		sbiw r28,0
 293 0076 01F4      		brne .L19
 294 0078 00C0      		rjmp .L13
 295               	.LVL24:
 296               	.L22:
 102:../../LUFA-Libs/Arduino_LUFA_Bootloader/LUFA/Drivers/USB/Core/AVR8/EndpointStream_AVR8.c **** 			if ((ErrorCode = Endpoint_WaitUntilReady()))
 297               		.loc 1 102 0
 298 007a D82E      		mov r13,r24
 299               	.LVL25:
 300               	.L13:
 111:../../LUFA-Libs/Arduino_LUFA_Bootloader/LUFA/Drivers/USB/Core/AVR8/EndpointStream_AVR8.c **** 		}
 112:../../LUFA-Libs/Arduino_LUFA_Bootloader/LUFA/Drivers/USB/Core/AVR8/EndpointStream_AVR8.c **** 	}
 113:../../LUFA-Libs/Arduino_LUFA_Bootloader/LUFA/Drivers/USB/Core/AVR8/EndpointStream_AVR8.c **** 	
 114:../../LUFA-Libs/Arduino_LUFA_Bootloader/LUFA/Drivers/USB/Core/AVR8/EndpointStream_AVR8.c **** 	return ENDPOINT_RWSTREAM_NoError;
 115:../../LUFA-Libs/Arduino_LUFA_Bootloader/LUFA/Drivers/USB/Core/AVR8/EndpointStream_AVR8.c **** }
 301               		.loc 1 115 0
 302 007c 8D2D      		mov r24,r13
 303               	/* epilogue start */
 304 007e DF91      		pop r29
 305 0080 CF91      		pop r28
 306               	.LVL26:
 307 0082 1F91      		pop r17
 308 0084 0F91      		pop r16
 309               	.LVL27:
 310 0086 FF90      		pop r15
 311 0088 EF90      		pop r14
 312 008a DF90      		pop r13
 313 008c 0895      		ret
 314               		.cfi_endproc
 315               	.LFE82:
 317               		.section	.text.Endpoint_Write_Stream_LE,"ax",@progbits
 318               	.global	Endpoint_Write_Stream_LE
 320               	Endpoint_Write_Stream_LE:
 321               	.LFB83:
 322               		.file 3 "../../LUFA-Libs/Arduino_LUFA_Bootloader/LUFA/Drivers/USB/Core/AVR8/Template/Template_Endp
   1:../../LUFA-Libs/Arduino_LUFA_Bootloader/LUFA/Drivers/USB/Core/AVR8/Template/Template_Endpoint_RW.c **** /*
   2:../../LUFA-Libs/Arduino_LUFA_Bootloader/LUFA/Drivers/USB/Core/AVR8/Template/Template_Endpoint_RW.c ****              LUFA Library
   3:../../LUFA-Libs/Arduino_LUFA_Bootloader/LUFA/Drivers/USB/Core/AVR8/Template/Template_Endpoint_RW.c ****      Copyright (C) Dean Camera, 2011.
   4:../../LUFA-Libs/Arduino_LUFA_Bootloader/LUFA/Drivers/USB/Core/AVR8/Template/Template_Endpoint_RW.c **** 
   5:../../LUFA-Libs/Arduino_LUFA_Bootloader/LUFA/Drivers/USB/Core/AVR8/Template/Template_Endpoint_RW.c ****   dean [at] fourwalledcubicle [dot] com
   6:../../LUFA-Libs/Arduino_LUFA_Bootloader/LUFA/Drivers/USB/Core/AVR8/Template/Template_Endpoint_RW.c ****            www.lufa-lib.org
   7:../../LUFA-Libs/Arduino_LUFA_Bootloader/LUFA/Drivers/USB/Core/AVR8/Template/Template_Endpoint_RW.c **** */
   8:../../LUFA-Libs/Arduino_LUFA_Bootloader/LUFA/Drivers/USB/Core/AVR8/Template/Template_Endpoint_RW.c **** 
   9:../../LUFA-Libs/Arduino_LUFA_Bootloader/LUFA/Drivers/USB/Core/AVR8/Template/Template_Endpoint_RW.c **** /*
  10:../../LUFA-Libs/Arduino_LUFA_Bootloader/LUFA/Drivers/USB/Core/AVR8/Template/Template_Endpoint_RW.c ****   Copyright 2011  Dean Camera (dean [at] fourwalledcubicle [dot] com)
  11:../../LUFA-Libs/Arduino_LUFA_Bootloader/LUFA/Drivers/USB/Core/AVR8/Template/Template_Endpoint_RW.c **** 
  12:../../LUFA-Libs/Arduino_LUFA_Bootloader/LUFA/Drivers/USB/Core/AVR8/Template/Template_Endpoint_RW.c ****   Permission to use, copy, modify, distribute, and sell this
  13:../../LUFA-Libs/Arduino_LUFA_Bootloader/LUFA/Drivers/USB/Core/AVR8/Template/Template_Endpoint_RW.c ****   software and its documentation for any purpose is hereby granted
  14:../../LUFA-Libs/Arduino_LUFA_Bootloader/LUFA/Drivers/USB/Core/AVR8/Template/Template_Endpoint_RW.c ****   without fee, provided that the above copyright notice appear in
  15:../../LUFA-Libs/Arduino_LUFA_Bootloader/LUFA/Drivers/USB/Core/AVR8/Template/Template_Endpoint_RW.c ****   all copies and that both that the copyright notice and this
  16:../../LUFA-Libs/Arduino_LUFA_Bootloader/LUFA/Drivers/USB/Core/AVR8/Template/Template_Endpoint_RW.c ****   permission notice and warranty disclaimer appear in supporting
  17:../../LUFA-Libs/Arduino_LUFA_Bootloader/LUFA/Drivers/USB/Core/AVR8/Template/Template_Endpoint_RW.c ****   documentation, and that the name of the author not be used in
  18:../../LUFA-Libs/Arduino_LUFA_Bootloader/LUFA/Drivers/USB/Core/AVR8/Template/Template_Endpoint_RW.c ****   advertising or publicity pertaining to distribution of the
  19:../../LUFA-Libs/Arduino_LUFA_Bootloader/LUFA/Drivers/USB/Core/AVR8/Template/Template_Endpoint_RW.c ****   software without specific, written prior permission.
  20:../../LUFA-Libs/Arduino_LUFA_Bootloader/LUFA/Drivers/USB/Core/AVR8/Template/Template_Endpoint_RW.c **** 
  21:../../LUFA-Libs/Arduino_LUFA_Bootloader/LUFA/Drivers/USB/Core/AVR8/Template/Template_Endpoint_RW.c ****   The author disclaim all warranties with regard to this
  22:../../LUFA-Libs/Arduino_LUFA_Bootloader/LUFA/Drivers/USB/Core/AVR8/Template/Template_Endpoint_RW.c ****   software, including all implied warranties of merchantability
  23:../../LUFA-Libs/Arduino_LUFA_Bootloader/LUFA/Drivers/USB/Core/AVR8/Template/Template_Endpoint_RW.c ****   and fitness.  In no event shall the author be liable for any
  24:../../LUFA-Libs/Arduino_LUFA_Bootloader/LUFA/Drivers/USB/Core/AVR8/Template/Template_Endpoint_RW.c ****   special, indirect or consequential damages or any damages
  25:../../LUFA-Libs/Arduino_LUFA_Bootloader/LUFA/Drivers/USB/Core/AVR8/Template/Template_Endpoint_RW.c ****   whatsoever resulting from loss of use, data or profits, whether
  26:../../LUFA-Libs/Arduino_LUFA_Bootloader/LUFA/Drivers/USB/Core/AVR8/Template/Template_Endpoint_RW.c ****   in an action of contract, negligence or other tortious action,
  27:../../LUFA-Libs/Arduino_LUFA_Bootloader/LUFA/Drivers/USB/Core/AVR8/Template/Template_Endpoint_RW.c ****   arising out of or in connection with the use or performance of
  28:../../LUFA-Libs/Arduino_LUFA_Bootloader/LUFA/Drivers/USB/Core/AVR8/Template/Template_Endpoint_RW.c ****   this software.
  29:../../LUFA-Libs/Arduino_LUFA_Bootloader/LUFA/Drivers/USB/Core/AVR8/Template/Template_Endpoint_RW.c **** */
  30:../../LUFA-Libs/Arduino_LUFA_Bootloader/LUFA/Drivers/USB/Core/AVR8/Template/Template_Endpoint_RW.c **** 
  31:../../LUFA-Libs/Arduino_LUFA_Bootloader/LUFA/Drivers/USB/Core/AVR8/Template/Template_Endpoint_RW.c **** #if defined(TEMPLATE_FUNC_NAME)
  32:../../LUFA-Libs/Arduino_LUFA_Bootloader/LUFA/Drivers/USB/Core/AVR8/Template/Template_Endpoint_RW.c **** 
  33:../../LUFA-Libs/Arduino_LUFA_Bootloader/LUFA/Drivers/USB/Core/AVR8/Template/Template_Endpoint_RW.c **** uint8_t TEMPLATE_FUNC_NAME (TEMPLATE_BUFFER_TYPE const Buffer,
  34:../../LUFA-Libs/Arduino_LUFA_Bootloader/LUFA/Drivers/USB/Core/AVR8/Template/Template_Endpoint_RW.c ****                             uint16_t Length,
  35:../../LUFA-Libs/Arduino_LUFA_Bootloader/LUFA/Drivers/USB/Core/AVR8/Template/Template_Endpoint_RW.c ****                             uint16_t* const BytesProcessed)
  36:../../LUFA-Libs/Arduino_LUFA_Bootloader/LUFA/Drivers/USB/Core/AVR8/Template/Template_Endpoint_RW.c **** {
 323               		.loc 3 36 0
 324               		.cfi_startproc
 325               	.LVL28:
 326 0000 AF92      		push r10
 327               	.LCFI14:
 328               		.cfi_def_cfa_offset 3
 329               		.cfi_offset 10, -2
 330 0002 BF92      		push r11
 331               	.LCFI15:
 332               		.cfi_def_cfa_offset 4
 333               		.cfi_offset 11, -3
 334 0004 CF92      		push r12
 335               	.LCFI16:
 336               		.cfi_def_cfa_offset 5
 337               		.cfi_offset 12, -4
 338 0006 DF92      		push r13
 339               	.LCFI17:
 340               		.cfi_def_cfa_offset 6
 341               		.cfi_offset 13, -5
 342 0008 EF92      		push r14
 343               	.LCFI18:
 344               		.cfi_def_cfa_offset 7
 345               		.cfi_offset 14, -6
 346 000a FF92      		push r15
 347               	.LCFI19:
 348               		.cfi_def_cfa_offset 8
 349               		.cfi_offset 15, -7
 350 000c 1F93      		push r17
 351               	.LCFI20:
 352               		.cfi_def_cfa_offset 9
 353               		.cfi_offset 17, -8
 354 000e CF93      		push r28
 355               	.LCFI21:
 356               		.cfi_def_cfa_offset 10
 357               		.cfi_offset 28, -9
 358 0010 DF93      		push r29
 359               	.LCFI22:
 360               		.cfi_def_cfa_offset 11
 361               		.cfi_offset 29, -10
 362               	/* prologue: function */
 363               	/* frame size = 0 */
 364               	/* stack size = 9 */
 365               	.L__stack_usage = 9
 366 0012 EC01      		movw r28,r24
 367 0014 7B01      		movw r14,r22
 368 0016 6A01      		movw r12,r20
 369               	.LVL29:
  37:../../LUFA-Libs/Arduino_LUFA_Bootloader/LUFA/Drivers/USB/Core/AVR8/Template/Template_Endpoint_RW.c **** 	uint8_t* DataStream      = ((uint8_t*)Buffer + TEMPLATE_BUFFER_OFFSET(Length));
  38:../../LUFA-Libs/Arduino_LUFA_Bootloader/LUFA/Drivers/USB/Core/AVR8/Template/Template_Endpoint_RW.c **** 	uint16_t BytesInTransfer = 0;
  39:../../LUFA-Libs/Arduino_LUFA_Bootloader/LUFA/Drivers/USB/Core/AVR8/Template/Template_Endpoint_RW.c **** 	uint8_t  ErrorCode;
  40:../../LUFA-Libs/Arduino_LUFA_Bootloader/LUFA/Drivers/USB/Core/AVR8/Template/Template_Endpoint_RW.c **** 
  41:../../LUFA-Libs/Arduino_LUFA_Bootloader/LUFA/Drivers/USB/Core/AVR8/Template/Template_Endpoint_RW.c **** 	if ((ErrorCode = Endpoint_WaitUntilReady()))
 370               		.loc 3 41 0
 371 0018 0E94 0000 		call Endpoint_WaitUntilReady
 372               	.LVL30:
 373 001c 182F      		mov r17,r24
 374               	.LVL31:
 375 001e 8823      		tst r24
 376 0020 01F4      		brne .L24
  42:../../LUFA-Libs/Arduino_LUFA_Bootloader/LUFA/Drivers/USB/Core/AVR8/Template/Template_Endpoint_RW.c **** 	  return ErrorCode;
  43:../../LUFA-Libs/Arduino_LUFA_Bootloader/LUFA/Drivers/USB/Core/AVR8/Template/Template_Endpoint_RW.c **** 
  44:../../LUFA-Libs/Arduino_LUFA_Bootloader/LUFA/Drivers/USB/Core/AVR8/Template/Template_Endpoint_RW.c **** 	if (BytesProcessed != NULL)
 377               		.loc 3 44 0
 378 0022 C114      		cp r12,__zero_reg__
 379 0024 D104      		cpc r13,__zero_reg__
 380 0026 01F0      		breq .L25
  45:../../LUFA-Libs/Arduino_LUFA_Bootloader/LUFA/Drivers/USB/Core/AVR8/Template/Template_Endpoint_RW.c **** 	{
  46:../../LUFA-Libs/Arduino_LUFA_Bootloader/LUFA/Drivers/USB/Core/AVR8/Template/Template_Endpoint_RW.c **** 		Length -= *BytesProcessed;
 381               		.loc 3 46 0
 382 0028 F601      		movw r30,r12
 383 002a 2081      		ld r18,Z
 384 002c 3181      		ldd r19,Z+1
 385 002e E21A      		sub r14,r18
 386 0030 F30A      		sbc r15,r19
 387               	.LVL32:
  47:../../LUFA-Libs/Arduino_LUFA_Bootloader/LUFA/Drivers/USB/Core/AVR8/Template/Template_Endpoint_RW.c **** 		TEMPLATE_BUFFER_MOVE(DataStream, *BytesProcessed);
 388               		.loc 3 47 0
 389 0032 C20F      		add r28,r18
 390 0034 D31F      		adc r29,r19
 391               	.LVL33:
 392               	.L25:
  37:../../LUFA-Libs/Arduino_LUFA_Bootloader/LUFA/Drivers/USB/Core/AVR8/Template/Template_Endpoint_RW.c **** 	uint8_t* DataStream      = ((uint8_t*)Buffer + TEMPLATE_BUFFER_OFFSET(Length));
 393               		.loc 3 37 0 discriminator 1
 394 0036 AA24      		clr r10
 395 0038 BB24      		clr r11
 396 003a 00C0      		rjmp .L33
 397               	.LVL34:
 398               	.L30:
 399               	.LBB268:
 400               	.LBB269:
 420:../../LUFA-Libs/Arduino_LUFA_Bootloader/LUFA/Drivers/USB/Core/AVR8/../AVR8/../AVR8/Endpoint_AVR8.h **** 				return ((UEINTX & (1 << RWAL)) ? true : false);
 401               		.loc 2 420 0
 402 003c 8091 E800 		lds r24,232
 403               	.LBE269:
 404               	.LBE268:
  48:../../LUFA-Libs/Arduino_LUFA_Bootloader/LUFA/Drivers/USB/Core/AVR8/Template/Template_Endpoint_RW.c **** 	}
  49:../../LUFA-Libs/Arduino_LUFA_Bootloader/LUFA/Drivers/USB/Core/AVR8/Template/Template_Endpoint_RW.c **** 
  50:../../LUFA-Libs/Arduino_LUFA_Bootloader/LUFA/Drivers/USB/Core/AVR8/Template/Template_Endpoint_RW.c **** 	while (Length)
  51:../../LUFA-Libs/Arduino_LUFA_Bootloader/LUFA/Drivers/USB/Core/AVR8/Template/Template_Endpoint_RW.c **** 	{
  52:../../LUFA-Libs/Arduino_LUFA_Bootloader/LUFA/Drivers/USB/Core/AVR8/Template/Template_Endpoint_RW.c **** 		if (!(Endpoint_IsReadWriteAllowed()))
 405               		.loc 3 52 0
 406 0040 85FD      		sbrc r24,5
 407 0042 00C0      		rjmp .L27
 408               	.LBB270:
 409               	.LBB271:
 516:../../LUFA-Libs/Arduino_LUFA_Bootloader/LUFA/Drivers/USB/Core/AVR8/../AVR8/../AVR8/Endpoint_AVR8.h **** 					UEINTX &= ~((1 << TXINI) | (1 << FIFOCON));
 410               		.loc 2 516 0
 411 0044 8091 E800 		lds r24,232
 412 0048 8E77      		andi r24,lo8(126)
 413 004a 8093 E800 		sts 232,r24
 414               	.LBE271:
 415               	.LBE270:
  53:../../LUFA-Libs/Arduino_LUFA_Bootloader/LUFA/Drivers/USB/Core/AVR8/Template/Template_Endpoint_RW.c **** 		{
  54:../../LUFA-Libs/Arduino_LUFA_Bootloader/LUFA/Drivers/USB/Core/AVR8/Template/Template_Endpoint_RW.c **** 			TEMPLATE_CLEAR_ENDPOINT();
  55:../../LUFA-Libs/Arduino_LUFA_Bootloader/LUFA/Drivers/USB/Core/AVR8/Template/Template_Endpoint_RW.c **** 
  56:../../LUFA-Libs/Arduino_LUFA_Bootloader/LUFA/Drivers/USB/Core/AVR8/Template/Template_Endpoint_RW.c **** 			#if !defined(INTERRUPT_CONTROL_ENDPOINT)
  57:../../LUFA-Libs/Arduino_LUFA_Bootloader/LUFA/Drivers/USB/Core/AVR8/Template/Template_Endpoint_RW.c **** 			USB_USBTask();
 416               		.loc 3 57 0
 417 004e 0E94 0000 		call USB_USBTask
  58:../../LUFA-Libs/Arduino_LUFA_Bootloader/LUFA/Drivers/USB/Core/AVR8/Template/Template_Endpoint_RW.c **** 			#endif
  59:../../LUFA-Libs/Arduino_LUFA_Bootloader/LUFA/Drivers/USB/Core/AVR8/Template/Template_Endpoint_RW.c **** 
  60:../../LUFA-Libs/Arduino_LUFA_Bootloader/LUFA/Drivers/USB/Core/AVR8/Template/Template_Endpoint_RW.c **** 			if (BytesProcessed != NULL)
 418               		.loc 3 60 0
 419 0052 C114      		cp r12,__zero_reg__
 420 0054 D104      		cpc r13,__zero_reg__
 421 0056 01F0      		breq .L28
  61:../../LUFA-Libs/Arduino_LUFA_Bootloader/LUFA/Drivers/USB/Core/AVR8/Template/Template_Endpoint_RW.c **** 			{
  62:../../LUFA-Libs/Arduino_LUFA_Bootloader/LUFA/Drivers/USB/Core/AVR8/Template/Template_Endpoint_RW.c **** 				*BytesProcessed += BytesInTransfer;
 422               		.loc 3 62 0
 423 0058 F601      		movw r30,r12
 424 005a 8081      		ld r24,Z
 425 005c 9181      		ldd r25,Z+1
 426 005e 8A0D      		add r24,r10
 427 0060 9B1D      		adc r25,r11
 428 0062 9183      		std Z+1,r25
 429 0064 8083      		st Z,r24
  63:../../LUFA-Libs/Arduino_LUFA_Bootloader/LUFA/Drivers/USB/Core/AVR8/Template/Template_Endpoint_RW.c **** 				return ENDPOINT_RWSTREAM_IncompleteTransfer;
 430               		.loc 3 63 0
 431 0066 15E0      		ldi r17,lo8(5)
 432 0068 00C0      		rjmp .L24
 433               	.L28:
  64:../../LUFA-Libs/Arduino_LUFA_Bootloader/LUFA/Drivers/USB/Core/AVR8/Template/Template_Endpoint_RW.c **** 			}
  65:../../LUFA-Libs/Arduino_LUFA_Bootloader/LUFA/Drivers/USB/Core/AVR8/Template/Template_Endpoint_RW.c **** 
  66:../../LUFA-Libs/Arduino_LUFA_Bootloader/LUFA/Drivers/USB/Core/AVR8/Template/Template_Endpoint_RW.c **** 			if ((ErrorCode = Endpoint_WaitUntilReady()))
 434               		.loc 3 66 0
 435 006a 0E94 0000 		call Endpoint_WaitUntilReady
 436               	.LVL35:
 437 006e 8823      		tst r24
 438 0070 01F0      		breq .L33
 439 0072 00C0      		rjmp .L34
 440               	.LVL36:
 441               	.L27:
  67:../../LUFA-Libs/Arduino_LUFA_Bootloader/LUFA/Drivers/USB/Core/AVR8/Template/Template_Endpoint_RW.c **** 			  return ErrorCode;
  68:../../LUFA-Libs/Arduino_LUFA_Bootloader/LUFA/Drivers/USB/Core/AVR8/Template/Template_Endpoint_RW.c **** 		}
  69:../../LUFA-Libs/Arduino_LUFA_Bootloader/LUFA/Drivers/USB/Core/AVR8/Template/Template_Endpoint_RW.c **** 		else
  70:../../LUFA-Libs/Arduino_LUFA_Bootloader/LUFA/Drivers/USB/Core/AVR8/Template/Template_Endpoint_RW.c **** 		{
  71:../../LUFA-Libs/Arduino_LUFA_Bootloader/LUFA/Drivers/USB/Core/AVR8/Template/Template_Endpoint_RW.c **** 			TEMPLATE_TRANSFER_BYTE(DataStream);
 442               		.loc 3 71 0
 443 0074 8991      		ld r24,Y+
 444               	.LVL37:
 445               	.LBB272:
 446               	.LBB273:
 624:../../LUFA-Libs/Arduino_LUFA_Bootloader/LUFA/Drivers/USB/Core/AVR8/../AVR8/../AVR8/Endpoint_AVR8.h **** 				UEDATX = Data;
 447               		.loc 2 624 0
 448 0076 8093 F100 		sts 241,r24
 449               	.LVL38:
 450               	.LBE273:
 451               	.LBE272:
  72:../../LUFA-Libs/Arduino_LUFA_Bootloader/LUFA/Drivers/USB/Core/AVR8/Template/Template_Endpoint_RW.c **** 			TEMPLATE_BUFFER_MOVE(DataStream, 1);
  73:../../LUFA-Libs/Arduino_LUFA_Bootloader/LUFA/Drivers/USB/Core/AVR8/Template/Template_Endpoint_RW.c **** 			Length--;
 452               		.loc 3 73 0
 453 007a 0894      		sec
 454 007c E108      		sbc r14,__zero_reg__
 455 007e F108      		sbc r15,__zero_reg__
 456               	.LVL39:
  74:../../LUFA-Libs/Arduino_LUFA_Bootloader/LUFA/Drivers/USB/Core/AVR8/Template/Template_Endpoint_RW.c **** 			BytesInTransfer++;
 457               		.loc 3 74 0
 458 0080 0894      		sec
 459 0082 A11C      		adc r10,__zero_reg__
 460 0084 B11C      		adc r11,__zero_reg__
 461               	.LVL40:
 462               	.L33:
  50:../../LUFA-Libs/Arduino_LUFA_Bootloader/LUFA/Drivers/USB/Core/AVR8/Template/Template_Endpoint_RW.c **** 	while (Length)
 463               		.loc 3 50 0 discriminator 1
 464 0086 E114      		cp r14,__zero_reg__
 465 0088 F104      		cpc r15,__zero_reg__
 466 008a 01F4      		brne .L30
 467 008c 00C0      		rjmp .L24
 468               	.LVL41:
 469               	.L34:
  66:../../LUFA-Libs/Arduino_LUFA_Bootloader/LUFA/Drivers/USB/Core/AVR8/Template/Template_Endpoint_RW.c **** 			if ((ErrorCode = Endpoint_WaitUntilReady()))
 470               		.loc 3 66 0
 471 008e 182F      		mov r17,r24
 472               	.LVL42:
 473               	.L24:
  75:../../LUFA-Libs/Arduino_LUFA_Bootloader/LUFA/Drivers/USB/Core/AVR8/Template/Template_Endpoint_RW.c **** 		}
  76:../../LUFA-Libs/Arduino_LUFA_Bootloader/LUFA/Drivers/USB/Core/AVR8/Template/Template_Endpoint_RW.c **** 	}
  77:../../LUFA-Libs/Arduino_LUFA_Bootloader/LUFA/Drivers/USB/Core/AVR8/Template/Template_Endpoint_RW.c **** 
  78:../../LUFA-Libs/Arduino_LUFA_Bootloader/LUFA/Drivers/USB/Core/AVR8/Template/Template_Endpoint_RW.c **** 	return ENDPOINT_RWSTREAM_NoError;
  79:../../LUFA-Libs/Arduino_LUFA_Bootloader/LUFA/Drivers/USB/Core/AVR8/Template/Template_Endpoint_RW.c **** }
 474               		.loc 3 79 0
 475 0090 812F      		mov r24,r17
 476               	/* epilogue start */
 477 0092 DF91      		pop r29
 478 0094 CF91      		pop r28
 479               	.LVL43:
 480 0096 1F91      		pop r17
 481 0098 FF90      		pop r15
 482 009a EF90      		pop r14
 483               	.LVL44:
 484 009c DF90      		pop r13
 485 009e CF90      		pop r12
 486               	.LVL45:
 487 00a0 BF90      		pop r11
 488 00a2 AF90      		pop r10
 489 00a4 0895      		ret
 490               		.cfi_endproc
 491               	.LFE83:
 493               		.section	.text.Endpoint_Write_Stream_BE,"ax",@progbits
 494               	.global	Endpoint_Write_Stream_BE
 496               	Endpoint_Write_Stream_BE:
 497               	.LFB84:
  36:../../LUFA-Libs/Arduino_LUFA_Bootloader/LUFA/Drivers/USB/Core/AVR8/Template/Template_Endpoint_RW.c **** {
 498               		.loc 3 36 0
 499               		.cfi_startproc
 500               	.LVL46:
 501 0000 AF92      		push r10
 502               	.LCFI23:
 503               		.cfi_def_cfa_offset 3
 504               		.cfi_offset 10, -2
 505 0002 BF92      		push r11
 506               	.LCFI24:
 507               		.cfi_def_cfa_offset 4
 508               		.cfi_offset 11, -3
 509 0004 DF92      		push r13
 510               	.LCFI25:
 511               		.cfi_def_cfa_offset 5
 512               		.cfi_offset 13, -4
 513 0006 EF92      		push r14
 514               	.LCFI26:
 515               		.cfi_def_cfa_offset 6
 516               		.cfi_offset 14, -5
 517 0008 FF92      		push r15
 518               	.LCFI27:
 519               		.cfi_def_cfa_offset 7
 520               		.cfi_offset 15, -6
 521 000a 0F93      		push r16
 522               	.LCFI28:
 523               		.cfi_def_cfa_offset 8
 524               		.cfi_offset 16, -7
 525 000c 1F93      		push r17
 526               	.LCFI29:
 527               		.cfi_def_cfa_offset 9
 528               		.cfi_offset 17, -8
 529 000e CF93      		push r28
 530               	.LCFI30:
 531               		.cfi_def_cfa_offset 10
 532               		.cfi_offset 28, -9
 533 0010 DF93      		push r29
 534               	.LCFI31:
 535               		.cfi_def_cfa_offset 11
 536               		.cfi_offset 29, -10
 537               	/* prologue: function */
 538               	/* frame size = 0 */
 539               	/* stack size = 9 */
 540               	.L__stack_usage = 9
 541 0012 EC01      		movw r28,r24
 542 0014 7B01      		movw r14,r22
 543 0016 5A01      		movw r10,r20
 544               	.LVL47:
  41:../../LUFA-Libs/Arduino_LUFA_Bootloader/LUFA/Drivers/USB/Core/AVR8/Template/Template_Endpoint_RW.c **** 	if ((ErrorCode = Endpoint_WaitUntilReady()))
 545               		.loc 3 41 0
 546 0018 0E94 0000 		call Endpoint_WaitUntilReady
 547               	.LVL48:
 548 001c D82E      		mov r13,r24
 549               	.LVL49:
 550 001e 8823      		tst r24
 551 0020 01F4      		brne .L36
  37:../../LUFA-Libs/Arduino_LUFA_Bootloader/LUFA/Drivers/USB/Core/AVR8/Template/Template_Endpoint_RW.c **** 	uint8_t* DataStream      = ((uint8_t*)Buffer + TEMPLATE_BUFFER_OFFSET(Length));
 552               		.loc 3 37 0
 553 0022 8701      		movw r16,r14
 554 0024 0150      		subi r16,lo8(-(-1))
 555 0026 1040      		sbci r17,hi8(-(-1))
 556 0028 0C0F      		add r16,r28
 557 002a 1D1F      		adc r17,r29
  44:../../LUFA-Libs/Arduino_LUFA_Bootloader/LUFA/Drivers/USB/Core/AVR8/Template/Template_Endpoint_RW.c **** 	if (BytesProcessed != NULL)
 558               		.loc 3 44 0
 559 002c A114      		cp r10,__zero_reg__
 560 002e B104      		cpc r11,__zero_reg__
 561 0030 01F0      		breq .L37
  46:../../LUFA-Libs/Arduino_LUFA_Bootloader/LUFA/Drivers/USB/Core/AVR8/Template/Template_Endpoint_RW.c **** 		Length -= *BytesProcessed;
 562               		.loc 3 46 0
 563 0032 F501      		movw r30,r10
 564 0034 8081      		ld r24,Z
 565 0036 9181      		ldd r25,Z+1
 566               	.LVL50:
 567 0038 E81A      		sub r14,r24
 568 003a F90A      		sbc r15,r25
 569               	.LVL51:
  47:../../LUFA-Libs/Arduino_LUFA_Bootloader/LUFA/Drivers/USB/Core/AVR8/Template/Template_Endpoint_RW.c **** 		TEMPLATE_BUFFER_MOVE(DataStream, *BytesProcessed);
 570               		.loc 3 47 0
 571 003c 081B      		sub r16,r24
 572 003e 190B      		sbc r17,r25
 573               	.LVL52:
 574               	.L37:
  36:../../LUFA-Libs/Arduino_LUFA_Bootloader/LUFA/Drivers/USB/Core/AVR8/Template/Template_Endpoint_RW.c **** {
 575               		.loc 3 36 0 discriminator 1
 576 0040 C0E0      		ldi r28,lo8(0)
 577 0042 D0E0      		ldi r29,hi8(0)
 578               	.LVL53:
 579 0044 00C0      		rjmp .L44
 580               	.LVL54:
 581               	.L42:
 582               	.LBB274:
 583               	.LBB275:
 420:../../LUFA-Libs/Arduino_LUFA_Bootloader/LUFA/Drivers/USB/Core/AVR8/../AVR8/../AVR8/Endpoint_AVR8.h **** 				return ((UEINTX & (1 << RWAL)) ? true : false);
 584               		.loc 2 420 0
 585 0046 8091 E800 		lds r24,232
 586               	.LBE275:
 587               	.LBE274:
  52:../../LUFA-Libs/Arduino_LUFA_Bootloader/LUFA/Drivers/USB/Core/AVR8/Template/Template_Endpoint_RW.c **** 		if (!(Endpoint_IsReadWriteAllowed()))
 588               		.loc 3 52 0
 589 004a 85FD      		sbrc r24,5
 590 004c 00C0      		rjmp .L39
 591               	.LBB276:
 592               	.LBB277:
 516:../../LUFA-Libs/Arduino_LUFA_Bootloader/LUFA/Drivers/USB/Core/AVR8/../AVR8/../AVR8/Endpoint_AVR8.h **** 					UEINTX &= ~((1 << TXINI) | (1 << FIFOCON));
 593               		.loc 2 516 0
 594 004e 8091 E800 		lds r24,232
 595 0052 8E77      		andi r24,lo8(126)
 596 0054 8093 E800 		sts 232,r24
 597               	.LBE277:
 598               	.LBE276:
  57:../../LUFA-Libs/Arduino_LUFA_Bootloader/LUFA/Drivers/USB/Core/AVR8/Template/Template_Endpoint_RW.c **** 			USB_USBTask();
 599               		.loc 3 57 0
 600 0058 0E94 0000 		call USB_USBTask
  60:../../LUFA-Libs/Arduino_LUFA_Bootloader/LUFA/Drivers/USB/Core/AVR8/Template/Template_Endpoint_RW.c **** 			if (BytesProcessed != NULL)
 601               		.loc 3 60 0
 602 005c A114      		cp r10,__zero_reg__
 603 005e B104      		cpc r11,__zero_reg__
 604 0060 01F0      		breq .L40
  62:../../LUFA-Libs/Arduino_LUFA_Bootloader/LUFA/Drivers/USB/Core/AVR8/Template/Template_Endpoint_RW.c **** 				*BytesProcessed += BytesInTransfer;
 605               		.loc 3 62 0
 606 0062 F501      		movw r30,r10
 607 0064 8081      		ld r24,Z
 608 0066 9181      		ldd r25,Z+1
 609 0068 8C0F      		add r24,r28
 610 006a 9D1F      		adc r25,r29
 611 006c 9183      		std Z+1,r25
 612 006e 8083      		st Z,r24
  63:../../LUFA-Libs/Arduino_LUFA_Bootloader/LUFA/Drivers/USB/Core/AVR8/Template/Template_Endpoint_RW.c **** 				return ENDPOINT_RWSTREAM_IncompleteTransfer;
 613               		.loc 3 63 0
 614 0070 45E0      		ldi r20,lo8(5)
 615 0072 D42E      		mov r13,r20
 616 0074 00C0      		rjmp .L36
 617               	.L40:
  66:../../LUFA-Libs/Arduino_LUFA_Bootloader/LUFA/Drivers/USB/Core/AVR8/Template/Template_Endpoint_RW.c **** 			if ((ErrorCode = Endpoint_WaitUntilReady()))
 618               		.loc 3 66 0
 619 0076 0E94 0000 		call Endpoint_WaitUntilReady
 620               	.LVL55:
 621 007a 8823      		tst r24
 622 007c 01F0      		breq .L44
 623 007e 00C0      		rjmp .L45
 624               	.LVL56:
 625               	.L39:
  71:../../LUFA-Libs/Arduino_LUFA_Bootloader/LUFA/Drivers/USB/Core/AVR8/Template/Template_Endpoint_RW.c **** 			TEMPLATE_TRANSFER_BYTE(DataStream);
 626               		.loc 3 71 0
 627 0080 F801      		movw r30,r16
 628 0082 8081      		ld r24,Z
 629               	.LVL57:
 630               	.LBB278:
 631               	.LBB279:
 624:../../LUFA-Libs/Arduino_LUFA_Bootloader/LUFA/Drivers/USB/Core/AVR8/../AVR8/../AVR8/Endpoint_AVR8.h **** 				UEDATX = Data;
 632               		.loc 2 624 0
 633 0084 8093 F100 		sts 241,r24
 634               	.LBE279:
 635               	.LBE278:
  72:../../LUFA-Libs/Arduino_LUFA_Bootloader/LUFA/Drivers/USB/Core/AVR8/Template/Template_Endpoint_RW.c **** 			TEMPLATE_BUFFER_MOVE(DataStream, 1);
 636               		.loc 3 72 0
 637 0088 0150      		subi r16,lo8(-(-1))
 638 008a 1040      		sbci r17,hi8(-(-1))
 639               	.LVL58:
  73:../../LUFA-Libs/Arduino_LUFA_Bootloader/LUFA/Drivers/USB/Core/AVR8/Template/Template_Endpoint_RW.c **** 			Length--;
 640               		.loc 3 73 0
 641 008c 0894      		sec
 642 008e E108      		sbc r14,__zero_reg__
 643 0090 F108      		sbc r15,__zero_reg__
 644               	.LVL59:
  74:../../LUFA-Libs/Arduino_LUFA_Bootloader/LUFA/Drivers/USB/Core/AVR8/Template/Template_Endpoint_RW.c **** 			BytesInTransfer++;
 645               		.loc 3 74 0
 646 0092 2196      		adiw r28,1
 647               	.LVL60:
 648               	.L44:
  50:../../LUFA-Libs/Arduino_LUFA_Bootloader/LUFA/Drivers/USB/Core/AVR8/Template/Template_Endpoint_RW.c **** 	while (Length)
 649               		.loc 3 50 0 discriminator 1
 650 0094 E114      		cp r14,__zero_reg__
 651 0096 F104      		cpc r15,__zero_reg__
 652 0098 01F4      		brne .L42
 653 009a 00C0      		rjmp .L36
 654               	.LVL61:
 655               	.L45:
  66:../../LUFA-Libs/Arduino_LUFA_Bootloader/LUFA/Drivers/USB/Core/AVR8/Template/Template_Endpoint_RW.c **** 			if ((ErrorCode = Endpoint_WaitUntilReady()))
 656               		.loc 3 66 0
 657 009c D82E      		mov r13,r24
 658               	.LVL62:
 659               	.L36:
 660               		.loc 3 79 0
 661 009e 8D2D      		mov r24,r13
 662               	/* epilogue start */
 663 00a0 DF91      		pop r29
 664 00a2 CF91      		pop r28
 665 00a4 1F91      		pop r17
 666 00a6 0F91      		pop r16
 667 00a8 FF90      		pop r15
 668 00aa EF90      		pop r14
 669               	.LVL63:
 670 00ac DF90      		pop r13
 671 00ae BF90      		pop r11
 672 00b0 AF90      		pop r10
 673               	.LVL64:
 674 00b2 0895      		ret
 675               		.cfi_endproc
 676               	.LFE84:
 678               		.section	.text.Endpoint_Read_Stream_LE,"ax",@progbits
 679               	.global	Endpoint_Read_Stream_LE
 681               	Endpoint_Read_Stream_LE:
 682               	.LFB85:
  36:../../LUFA-Libs/Arduino_LUFA_Bootloader/LUFA/Drivers/USB/Core/AVR8/Template/Template_Endpoint_RW.c **** {
 683               		.loc 3 36 0
 684               		.cfi_startproc
 685               	.LVL65:
 686 0000 AF92      		push r10
 687               	.LCFI32:
 688               		.cfi_def_cfa_offset 3
 689               		.cfi_offset 10, -2
 690 0002 BF92      		push r11
 691               	.LCFI33:
 692               		.cfi_def_cfa_offset 4
 693               		.cfi_offset 11, -3
 694 0004 CF92      		push r12
 695               	.LCFI34:
 696               		.cfi_def_cfa_offset 5
 697               		.cfi_offset 12, -4
 698 0006 DF92      		push r13
 699               	.LCFI35:
 700               		.cfi_def_cfa_offset 6
 701               		.cfi_offset 13, -5
 702 0008 EF92      		push r14
 703               	.LCFI36:
 704               		.cfi_def_cfa_offset 7
 705               		.cfi_offset 14, -6
 706 000a FF92      		push r15
 707               	.LCFI37:
 708               		.cfi_def_cfa_offset 8
 709               		.cfi_offset 15, -7
 710 000c 1F93      		push r17
 711               	.LCFI38:
 712               		.cfi_def_cfa_offset 9
 713               		.cfi_offset 17, -8
 714 000e CF93      		push r28
 715               	.LCFI39:
 716               		.cfi_def_cfa_offset 10
 717               		.cfi_offset 28, -9
 718 0010 DF93      		push r29
 719               	.LCFI40:
 720               		.cfi_def_cfa_offset 11
 721               		.cfi_offset 29, -10
 722               	/* prologue: function */
 723               	/* frame size = 0 */
 724               	/* stack size = 9 */
 725               	.L__stack_usage = 9
 726 0012 EC01      		movw r28,r24
 727 0014 7B01      		movw r14,r22
 728 0016 6A01      		movw r12,r20
 729               	.LVL66:
  41:../../LUFA-Libs/Arduino_LUFA_Bootloader/LUFA/Drivers/USB/Core/AVR8/Template/Template_Endpoint_RW.c **** 	if ((ErrorCode = Endpoint_WaitUntilReady()))
 730               		.loc 3 41 0
 731 0018 0E94 0000 		call Endpoint_WaitUntilReady
 732               	.LVL67:
 733 001c 182F      		mov r17,r24
 734               	.LVL68:
 735 001e 8823      		tst r24
 736 0020 01F4      		brne .L47
  44:../../LUFA-Libs/Arduino_LUFA_Bootloader/LUFA/Drivers/USB/Core/AVR8/Template/Template_Endpoint_RW.c **** 	if (BytesProcessed != NULL)
 737               		.loc 3 44 0
 738 0022 C114      		cp r12,__zero_reg__
 739 0024 D104      		cpc r13,__zero_reg__
 740 0026 01F0      		breq .L48
  46:../../LUFA-Libs/Arduino_LUFA_Bootloader/LUFA/Drivers/USB/Core/AVR8/Template/Template_Endpoint_RW.c **** 		Length -= *BytesProcessed;
 741               		.loc 3 46 0
 742 0028 F601      		movw r30,r12
 743 002a 2081      		ld r18,Z
 744 002c 3181      		ldd r19,Z+1
 745 002e E21A      		sub r14,r18
 746 0030 F30A      		sbc r15,r19
 747               	.LVL69:
  47:../../LUFA-Libs/Arduino_LUFA_Bootloader/LUFA/Drivers/USB/Core/AVR8/Template/Template_Endpoint_RW.c **** 		TEMPLATE_BUFFER_MOVE(DataStream, *BytesProcessed);
 748               		.loc 3 47 0
 749 0032 C20F      		add r28,r18
 750 0034 D31F      		adc r29,r19
 751               	.LVL70:
 752               	.L48:
  37:../../LUFA-Libs/Arduino_LUFA_Bootloader/LUFA/Drivers/USB/Core/AVR8/Template/Template_Endpoint_RW.c **** 	uint8_t* DataStream      = ((uint8_t*)Buffer + TEMPLATE_BUFFER_OFFSET(Length));
 753               		.loc 3 37 0 discriminator 1
 754 0036 AA24      		clr r10
 755 0038 BB24      		clr r11
 756 003a 00C0      		rjmp .L56
 757               	.LVL71:
 758               	.L53:
 759               	.LBB280:
 760               	.LBB281:
 420:../../LUFA-Libs/Arduino_LUFA_Bootloader/LUFA/Drivers/USB/Core/AVR8/../AVR8/../AVR8/Endpoint_AVR8.h **** 				return ((UEINTX & (1 << RWAL)) ? true : false);
 761               		.loc 2 420 0
 762 003c 8091 E800 		lds r24,232
 763               	.LBE281:
 764               	.LBE280:
  52:../../LUFA-Libs/Arduino_LUFA_Bootloader/LUFA/Drivers/USB/Core/AVR8/Template/Template_Endpoint_RW.c **** 		if (!(Endpoint_IsReadWriteAllowed()))
 765               		.loc 3 52 0
 766 0040 85FD      		sbrc r24,5
 767 0042 00C0      		rjmp .L50
 768               	.LBB282:
 769               	.LBB283:
 531:../../LUFA-Libs/Arduino_LUFA_Bootloader/LUFA/Drivers/USB/Core/AVR8/../AVR8/../AVR8/Endpoint_AVR8.h **** 					UEINTX &= ~((1 << RXOUTI) | (1 << FIFOCON));
 770               		.loc 2 531 0
 771 0044 8091 E800 		lds r24,232
 772 0048 8B77      		andi r24,lo8(123)
 773 004a 8093 E800 		sts 232,r24
 774               	.LBE283:
 775               	.LBE282:
  57:../../LUFA-Libs/Arduino_LUFA_Bootloader/LUFA/Drivers/USB/Core/AVR8/Template/Template_Endpoint_RW.c **** 			USB_USBTask();
 776               		.loc 3 57 0
 777 004e 0E94 0000 		call USB_USBTask
  60:../../LUFA-Libs/Arduino_LUFA_Bootloader/LUFA/Drivers/USB/Core/AVR8/Template/Template_Endpoint_RW.c **** 			if (BytesProcessed != NULL)
 778               		.loc 3 60 0
 779 0052 C114      		cp r12,__zero_reg__
 780 0054 D104      		cpc r13,__zero_reg__
 781 0056 01F0      		breq .L51
  62:../../LUFA-Libs/Arduino_LUFA_Bootloader/LUFA/Drivers/USB/Core/AVR8/Template/Template_Endpoint_RW.c **** 				*BytesProcessed += BytesInTransfer;
 782               		.loc 3 62 0
 783 0058 F601      		movw r30,r12
 784 005a 8081      		ld r24,Z
 785 005c 9181      		ldd r25,Z+1
 786 005e 8A0D      		add r24,r10
 787 0060 9B1D      		adc r25,r11
 788 0062 9183      		std Z+1,r25
 789 0064 8083      		st Z,r24
  63:../../LUFA-Libs/Arduino_LUFA_Bootloader/LUFA/Drivers/USB/Core/AVR8/Template/Template_Endpoint_RW.c **** 				return ENDPOINT_RWSTREAM_IncompleteTransfer;
 790               		.loc 3 63 0
 791 0066 15E0      		ldi r17,lo8(5)
 792 0068 00C0      		rjmp .L47
 793               	.L51:
  66:../../LUFA-Libs/Arduino_LUFA_Bootloader/LUFA/Drivers/USB/Core/AVR8/Template/Template_Endpoint_RW.c **** 			if ((ErrorCode = Endpoint_WaitUntilReady()))
 794               		.loc 3 66 0
 795 006a 0E94 0000 		call Endpoint_WaitUntilReady
 796               	.LVL72:
 797 006e 8823      		tst r24
 798 0070 01F0      		breq .L56
 799 0072 00C0      		rjmp .L57
 800               	.LVL73:
 801               	.L50:
 802               	.LBB284:
 803               	.LBB285:
 612:../../LUFA-Libs/Arduino_LUFA_Bootloader/LUFA/Drivers/USB/Core/AVR8/../AVR8/../AVR8/Endpoint_AVR8.h **** 				return UEDATX;
 804               		.loc 2 612 0
 805 0074 8091 F100 		lds r24,241
 806               	.LBE285:
 807               	.LBE284:
  71:../../LUFA-Libs/Arduino_LUFA_Bootloader/LUFA/Drivers/USB/Core/AVR8/Template/Template_Endpoint_RW.c **** 			TEMPLATE_TRANSFER_BYTE(DataStream);
 808               		.loc 3 71 0
 809 0078 8993      		st Y+,r24
 810               	.LVL74:
  73:../../LUFA-Libs/Arduino_LUFA_Bootloader/LUFA/Drivers/USB/Core/AVR8/Template/Template_Endpoint_RW.c **** 			Length--;
 811               		.loc 3 73 0
 812 007a 0894      		sec
 813 007c E108      		sbc r14,__zero_reg__
 814 007e F108      		sbc r15,__zero_reg__
 815               	.LVL75:
  74:../../LUFA-Libs/Arduino_LUFA_Bootloader/LUFA/Drivers/USB/Core/AVR8/Template/Template_Endpoint_RW.c **** 			BytesInTransfer++;
 816               		.loc 3 74 0
 817 0080 0894      		sec
 818 0082 A11C      		adc r10,__zero_reg__
 819 0084 B11C      		adc r11,__zero_reg__
 820               	.LVL76:
 821               	.L56:
  50:../../LUFA-Libs/Arduino_LUFA_Bootloader/LUFA/Drivers/USB/Core/AVR8/Template/Template_Endpoint_RW.c **** 	while (Length)
 822               		.loc 3 50 0 discriminator 1
 823 0086 E114      		cp r14,__zero_reg__
 824 0088 F104      		cpc r15,__zero_reg__
 825 008a 01F4      		brne .L53
 826 008c 00C0      		rjmp .L47
 827               	.LVL77:
 828               	.L57:
  66:../../LUFA-Libs/Arduino_LUFA_Bootloader/LUFA/Drivers/USB/Core/AVR8/Template/Template_Endpoint_RW.c **** 			if ((ErrorCode = Endpoint_WaitUntilReady()))
 829               		.loc 3 66 0
 830 008e 182F      		mov r17,r24
 831               	.LVL78:
 832               	.L47:
 833               		.loc 3 79 0
 834 0090 812F      		mov r24,r17
 835               	/* epilogue start */
 836 0092 DF91      		pop r29
 837 0094 CF91      		pop r28
 838               	.LVL79:
 839 0096 1F91      		pop r17
 840 0098 FF90      		pop r15
 841 009a EF90      		pop r14
 842               	.LVL80:
 843 009c DF90      		pop r13
 844 009e CF90      		pop r12
 845               	.LVL81:
 846 00a0 BF90      		pop r11
 847 00a2 AF90      		pop r10
 848 00a4 0895      		ret
 849               		.cfi_endproc
 850               	.LFE85:
 852               		.section	.text.Endpoint_Read_Stream_BE,"ax",@progbits
 853               	.global	Endpoint_Read_Stream_BE
 855               	Endpoint_Read_Stream_BE:
 856               	.LFB86:
  36:../../LUFA-Libs/Arduino_LUFA_Bootloader/LUFA/Drivers/USB/Core/AVR8/Template/Template_Endpoint_RW.c **** {
 857               		.loc 3 36 0
 858               		.cfi_startproc
 859               	.LVL82:
 860 0000 AF92      		push r10
 861               	.LCFI41:
 862               		.cfi_def_cfa_offset 3
 863               		.cfi_offset 10, -2
 864 0002 BF92      		push r11
 865               	.LCFI42:
 866               		.cfi_def_cfa_offset 4
 867               		.cfi_offset 11, -3
 868 0004 DF92      		push r13
 869               	.LCFI43:
 870               		.cfi_def_cfa_offset 5
 871               		.cfi_offset 13, -4
 872 0006 EF92      		push r14
 873               	.LCFI44:
 874               		.cfi_def_cfa_offset 6
 875               		.cfi_offset 14, -5
 876 0008 FF92      		push r15
 877               	.LCFI45:
 878               		.cfi_def_cfa_offset 7
 879               		.cfi_offset 15, -6
 880 000a 0F93      		push r16
 881               	.LCFI46:
 882               		.cfi_def_cfa_offset 8
 883               		.cfi_offset 16, -7
 884 000c 1F93      		push r17
 885               	.LCFI47:
 886               		.cfi_def_cfa_offset 9
 887               		.cfi_offset 17, -8
 888 000e CF93      		push r28
 889               	.LCFI48:
 890               		.cfi_def_cfa_offset 10
 891               		.cfi_offset 28, -9
 892 0010 DF93      		push r29
 893               	.LCFI49:
 894               		.cfi_def_cfa_offset 11
 895               		.cfi_offset 29, -10
 896               	/* prologue: function */
 897               	/* frame size = 0 */
 898               	/* stack size = 9 */
 899               	.L__stack_usage = 9
 900 0012 EC01      		movw r28,r24
 901 0014 7B01      		movw r14,r22
 902 0016 5A01      		movw r10,r20
 903               	.LVL83:
  41:../../LUFA-Libs/Arduino_LUFA_Bootloader/LUFA/Drivers/USB/Core/AVR8/Template/Template_Endpoint_RW.c **** 	if ((ErrorCode = Endpoint_WaitUntilReady()))
 904               		.loc 3 41 0
 905 0018 0E94 0000 		call Endpoint_WaitUntilReady
 906               	.LVL84:
 907 001c D82E      		mov r13,r24
 908               	.LVL85:
 909 001e 8823      		tst r24
 910 0020 01F4      		brne .L59
  37:../../LUFA-Libs/Arduino_LUFA_Bootloader/LUFA/Drivers/USB/Core/AVR8/Template/Template_Endpoint_RW.c **** 	uint8_t* DataStream      = ((uint8_t*)Buffer + TEMPLATE_BUFFER_OFFSET(Length));
 911               		.loc 3 37 0
 912 0022 8701      		movw r16,r14
 913 0024 0150      		subi r16,lo8(-(-1))
 914 0026 1040      		sbci r17,hi8(-(-1))
 915 0028 0C0F      		add r16,r28
 916 002a 1D1F      		adc r17,r29
  44:../../LUFA-Libs/Arduino_LUFA_Bootloader/LUFA/Drivers/USB/Core/AVR8/Template/Template_Endpoint_RW.c **** 	if (BytesProcessed != NULL)
 917               		.loc 3 44 0
 918 002c A114      		cp r10,__zero_reg__
 919 002e B104      		cpc r11,__zero_reg__
 920 0030 01F0      		breq .L60
  46:../../LUFA-Libs/Arduino_LUFA_Bootloader/LUFA/Drivers/USB/Core/AVR8/Template/Template_Endpoint_RW.c **** 		Length -= *BytesProcessed;
 921               		.loc 3 46 0
 922 0032 F501      		movw r30,r10
 923 0034 8081      		ld r24,Z
 924 0036 9181      		ldd r25,Z+1
 925               	.LVL86:
 926 0038 E81A      		sub r14,r24
 927 003a F90A      		sbc r15,r25
 928               	.LVL87:
  47:../../LUFA-Libs/Arduino_LUFA_Bootloader/LUFA/Drivers/USB/Core/AVR8/Template/Template_Endpoint_RW.c **** 		TEMPLATE_BUFFER_MOVE(DataStream, *BytesProcessed);
 929               		.loc 3 47 0
 930 003c 081B      		sub r16,r24
 931 003e 190B      		sbc r17,r25
 932               	.LVL88:
 933               	.L60:
  36:../../LUFA-Libs/Arduino_LUFA_Bootloader/LUFA/Drivers/USB/Core/AVR8/Template/Template_Endpoint_RW.c **** {
 934               		.loc 3 36 0 discriminator 1
 935 0040 C0E0      		ldi r28,lo8(0)
 936 0042 D0E0      		ldi r29,hi8(0)
 937               	.LVL89:
 938 0044 00C0      		rjmp .L67
 939               	.LVL90:
 940               	.L65:
 941               	.LBB286:
 942               	.LBB287:
 420:../../LUFA-Libs/Arduino_LUFA_Bootloader/LUFA/Drivers/USB/Core/AVR8/../AVR8/../AVR8/Endpoint_AVR8.h **** 				return ((UEINTX & (1 << RWAL)) ? true : false);
 943               		.loc 2 420 0
 944 0046 8091 E800 		lds r24,232
 945               	.LBE287:
 946               	.LBE286:
  52:../../LUFA-Libs/Arduino_LUFA_Bootloader/LUFA/Drivers/USB/Core/AVR8/Template/Template_Endpoint_RW.c **** 		if (!(Endpoint_IsReadWriteAllowed()))
 947               		.loc 3 52 0
 948 004a 85FD      		sbrc r24,5
 949 004c 00C0      		rjmp .L62
 950               	.LBB288:
 951               	.LBB289:
 531:../../LUFA-Libs/Arduino_LUFA_Bootloader/LUFA/Drivers/USB/Core/AVR8/../AVR8/../AVR8/Endpoint_AVR8.h **** 					UEINTX &= ~((1 << RXOUTI) | (1 << FIFOCON));
 952               		.loc 2 531 0
 953 004e 8091 E800 		lds r24,232
 954 0052 8B77      		andi r24,lo8(123)
 955 0054 8093 E800 		sts 232,r24
 956               	.LBE289:
 957               	.LBE288:
  57:../../LUFA-Libs/Arduino_LUFA_Bootloader/LUFA/Drivers/USB/Core/AVR8/Template/Template_Endpoint_RW.c **** 			USB_USBTask();
 958               		.loc 3 57 0
 959 0058 0E94 0000 		call USB_USBTask
  60:../../LUFA-Libs/Arduino_LUFA_Bootloader/LUFA/Drivers/USB/Core/AVR8/Template/Template_Endpoint_RW.c **** 			if (BytesProcessed != NULL)
 960               		.loc 3 60 0
 961 005c A114      		cp r10,__zero_reg__
 962 005e B104      		cpc r11,__zero_reg__
 963 0060 01F0      		breq .L63
  62:../../LUFA-Libs/Arduino_LUFA_Bootloader/LUFA/Drivers/USB/Core/AVR8/Template/Template_Endpoint_RW.c **** 				*BytesProcessed += BytesInTransfer;
 964               		.loc 3 62 0
 965 0062 F501      		movw r30,r10
 966 0064 8081      		ld r24,Z
 967 0066 9181      		ldd r25,Z+1
 968 0068 8C0F      		add r24,r28
 969 006a 9D1F      		adc r25,r29
 970 006c 9183      		std Z+1,r25
 971 006e 8083      		st Z,r24
  63:../../LUFA-Libs/Arduino_LUFA_Bootloader/LUFA/Drivers/USB/Core/AVR8/Template/Template_Endpoint_RW.c **** 				return ENDPOINT_RWSTREAM_IncompleteTransfer;
 972               		.loc 3 63 0
 973 0070 55E0      		ldi r21,lo8(5)
 974 0072 D52E      		mov r13,r21
 975 0074 00C0      		rjmp .L59
 976               	.L63:
  66:../../LUFA-Libs/Arduino_LUFA_Bootloader/LUFA/Drivers/USB/Core/AVR8/Template/Template_Endpoint_RW.c **** 			if ((ErrorCode = Endpoint_WaitUntilReady()))
 977               		.loc 3 66 0
 978 0076 0E94 0000 		call Endpoint_WaitUntilReady
 979               	.LVL91:
 980 007a 8823      		tst r24
 981 007c 01F0      		breq .L67
 982 007e 00C0      		rjmp .L68
 983               	.LVL92:
 984               	.L62:
 985               	.LBB290:
 986               	.LBB291:
 612:../../LUFA-Libs/Arduino_LUFA_Bootloader/LUFA/Drivers/USB/Core/AVR8/../AVR8/../AVR8/Endpoint_AVR8.h **** 				return UEDATX;
 987               		.loc 2 612 0
 988 0080 8091 F100 		lds r24,241
 989               	.LBE291:
 990               	.LBE290:
  71:../../LUFA-Libs/Arduino_LUFA_Bootloader/LUFA/Drivers/USB/Core/AVR8/Template/Template_Endpoint_RW.c **** 			TEMPLATE_TRANSFER_BYTE(DataStream);
 991               		.loc 3 71 0
 992 0084 F801      		movw r30,r16
 993 0086 8083      		st Z,r24
  72:../../LUFA-Libs/Arduino_LUFA_Bootloader/LUFA/Drivers/USB/Core/AVR8/Template/Template_Endpoint_RW.c **** 			TEMPLATE_BUFFER_MOVE(DataStream, 1);
 994               		.loc 3 72 0
 995 0088 0150      		subi r16,lo8(-(-1))
 996 008a 1040      		sbci r17,hi8(-(-1))
 997               	.LVL93:
  73:../../LUFA-Libs/Arduino_LUFA_Bootloader/LUFA/Drivers/USB/Core/AVR8/Template/Template_Endpoint_RW.c **** 			Length--;
 998               		.loc 3 73 0
 999 008c 0894      		sec
 1000 008e E108      		sbc r14,__zero_reg__
 1001 0090 F108      		sbc r15,__zero_reg__
 1002               	.LVL94:
  74:../../LUFA-Libs/Arduino_LUFA_Bootloader/LUFA/Drivers/USB/Core/AVR8/Template/Template_Endpoint_RW.c **** 			BytesInTransfer++;
 1003               		.loc 3 74 0
 1004 0092 2196      		adiw r28,1
 1005               	.LVL95:
 1006               	.L67:
  50:../../LUFA-Libs/Arduino_LUFA_Bootloader/LUFA/Drivers/USB/Core/AVR8/Template/Template_Endpoint_RW.c **** 	while (Length)
 1007               		.loc 3 50 0 discriminator 1
 1008 0094 E114      		cp r14,__zero_reg__
 1009 0096 F104      		cpc r15,__zero_reg__
 1010 0098 01F4      		brne .L65
 1011 009a 00C0      		rjmp .L59
 1012               	.LVL96:
 1013               	.L68:
  66:../../LUFA-Libs/Arduino_LUFA_Bootloader/LUFA/Drivers/USB/Core/AVR8/Template/Template_Endpoint_RW.c **** 			if ((ErrorCode = Endpoint_WaitUntilReady()))
 1014               		.loc 3 66 0
 1015 009c D82E      		mov r13,r24
 1016               	.LVL97:
 1017               	.L59:
 1018               		.loc 3 79 0
 1019 009e 8D2D      		mov r24,r13
 1020               	/* epilogue start */
 1021 00a0 DF91      		pop r29
 1022 00a2 CF91      		pop r28
 1023 00a4 1F91      		pop r17
 1024 00a6 0F91      		pop r16
 1025 00a8 FF90      		pop r15
 1026 00aa EF90      		pop r14
 1027               	.LVL98:
 1028 00ac DF90      		pop r13
 1029 00ae BF90      		pop r11
 1030 00b0 AF90      		pop r10
 1031               	.LVL99:
 1032 00b2 0895      		ret
 1033               		.cfi_endproc
 1034               	.LFE86:
 1036               		.section	.text.Endpoint_Write_PStream_LE,"ax",@progbits
 1037               	.global	Endpoint_Write_PStream_LE
 1039               	Endpoint_Write_PStream_LE:
 1040               	.LFB87:
  36:../../LUFA-Libs/Arduino_LUFA_Bootloader/LUFA/Drivers/USB/Core/AVR8/Template/Template_Endpoint_RW.c **** {
 1041               		.loc 3 36 0
 1042               		.cfi_startproc
 1043               	.LVL100:
 1044 0000 AF92      		push r10
 1045               	.LCFI50:
 1046               		.cfi_def_cfa_offset 3
 1047               		.cfi_offset 10, -2
 1048 0002 BF92      		push r11
 1049               	.LCFI51:
 1050               		.cfi_def_cfa_offset 4
 1051               		.cfi_offset 11, -3
 1052 0004 CF92      		push r12
 1053               	.LCFI52:
 1054               		.cfi_def_cfa_offset 5
 1055               		.cfi_offset 12, -4
 1056 0006 DF92      		push r13
 1057               	.LCFI53:
 1058               		.cfi_def_cfa_offset 6
 1059               		.cfi_offset 13, -5
 1060 0008 EF92      		push r14
 1061               	.LCFI54:
 1062               		.cfi_def_cfa_offset 7
 1063               		.cfi_offset 14, -6
 1064 000a FF92      		push r15
 1065               	.LCFI55:
 1066               		.cfi_def_cfa_offset 8
 1067               		.cfi_offset 15, -7
 1068 000c 1F93      		push r17
 1069               	.LCFI56:
 1070               		.cfi_def_cfa_offset 9
 1071               		.cfi_offset 17, -8
 1072 000e CF93      		push r28
 1073               	.LCFI57:
 1074               		.cfi_def_cfa_offset 10
 1075               		.cfi_offset 28, -9
 1076 0010 DF93      		push r29
 1077               	.LCFI58:
 1078               		.cfi_def_cfa_offset 11
 1079               		.cfi_offset 29, -10
 1080               	/* prologue: function */
 1081               	/* frame size = 0 */
 1082               	/* stack size = 9 */
 1083               	.L__stack_usage = 9
 1084 0012 EC01      		movw r28,r24
 1085 0014 7B01      		movw r14,r22
 1086 0016 6A01      		movw r12,r20
 1087               	.LVL101:
  41:../../LUFA-Libs/Arduino_LUFA_Bootloader/LUFA/Drivers/USB/Core/AVR8/Template/Template_Endpoint_RW.c **** 	if ((ErrorCode = Endpoint_WaitUntilReady()))
 1088               		.loc 3 41 0
 1089 0018 0E94 0000 		call Endpoint_WaitUntilReady
 1090               	.LVL102:
 1091 001c 182F      		mov r17,r24
 1092               	.LVL103:
 1093 001e 8823      		tst r24
 1094 0020 01F4      		brne .L70
  44:../../LUFA-Libs/Arduino_LUFA_Bootloader/LUFA/Drivers/USB/Core/AVR8/Template/Template_Endpoint_RW.c **** 	if (BytesProcessed != NULL)
 1095               		.loc 3 44 0
 1096 0022 C114      		cp r12,__zero_reg__
 1097 0024 D104      		cpc r13,__zero_reg__
 1098 0026 01F0      		breq .L71
  46:../../LUFA-Libs/Arduino_LUFA_Bootloader/LUFA/Drivers/USB/Core/AVR8/Template/Template_Endpoint_RW.c **** 		Length -= *BytesProcessed;
 1099               		.loc 3 46 0
 1100 0028 F601      		movw r30,r12
 1101 002a 2081      		ld r18,Z
 1102 002c 3181      		ldd r19,Z+1
 1103 002e E21A      		sub r14,r18
 1104 0030 F30A      		sbc r15,r19
 1105               	.LVL104:
  47:../../LUFA-Libs/Arduino_LUFA_Bootloader/LUFA/Drivers/USB/Core/AVR8/Template/Template_Endpoint_RW.c **** 		TEMPLATE_BUFFER_MOVE(DataStream, *BytesProcessed);
 1106               		.loc 3 47 0
 1107 0032 C20F      		add r28,r18
 1108 0034 D31F      		adc r29,r19
 1109               	.LVL105:
 1110               	.L71:
  37:../../LUFA-Libs/Arduino_LUFA_Bootloader/LUFA/Drivers/USB/Core/AVR8/Template/Template_Endpoint_RW.c **** 	uint8_t* DataStream      = ((uint8_t*)Buffer + TEMPLATE_BUFFER_OFFSET(Length));
 1111               		.loc 3 37 0 discriminator 1
 1112 0036 AA24      		clr r10
 1113 0038 BB24      		clr r11
 1114 003a 00C0      		rjmp .L79
 1115               	.LVL106:
 1116               	.L76:
 1117               	.LBB292:
 1118               	.LBB293:
 420:../../LUFA-Libs/Arduino_LUFA_Bootloader/LUFA/Drivers/USB/Core/AVR8/../AVR8/../AVR8/Endpoint_AVR8.h **** 				return ((UEINTX & (1 << RWAL)) ? true : false);
 1119               		.loc 2 420 0
 1120 003c 8091 E800 		lds r24,232
 1121               	.LBE293:
 1122               	.LBE292:
  52:../../LUFA-Libs/Arduino_LUFA_Bootloader/LUFA/Drivers/USB/Core/AVR8/Template/Template_Endpoint_RW.c **** 		if (!(Endpoint_IsReadWriteAllowed()))
 1123               		.loc 3 52 0
 1124 0040 85FD      		sbrc r24,5
 1125 0042 00C0      		rjmp .L73
 1126               	.LBB294:
 1127               	.LBB295:
 516:../../LUFA-Libs/Arduino_LUFA_Bootloader/LUFA/Drivers/USB/Core/AVR8/../AVR8/../AVR8/Endpoint_AVR8.h **** 					UEINTX &= ~((1 << TXINI) | (1 << FIFOCON));
 1128               		.loc 2 516 0
 1129 0044 8091 E800 		lds r24,232
 1130 0048 8E77      		andi r24,lo8(126)
 1131 004a 8093 E800 		sts 232,r24
 1132               	.LBE295:
 1133               	.LBE294:
  57:../../LUFA-Libs/Arduino_LUFA_Bootloader/LUFA/Drivers/USB/Core/AVR8/Template/Template_Endpoint_RW.c **** 			USB_USBTask();
 1134               		.loc 3 57 0
 1135 004e 0E94 0000 		call USB_USBTask
  60:../../LUFA-Libs/Arduino_LUFA_Bootloader/LUFA/Drivers/USB/Core/AVR8/Template/Template_Endpoint_RW.c **** 			if (BytesProcessed != NULL)
 1136               		.loc 3 60 0
 1137 0052 C114      		cp r12,__zero_reg__
 1138 0054 D104      		cpc r13,__zero_reg__
 1139 0056 01F0      		breq .L74
  62:../../LUFA-Libs/Arduino_LUFA_Bootloader/LUFA/Drivers/USB/Core/AVR8/Template/Template_Endpoint_RW.c **** 				*BytesProcessed += BytesInTransfer;
 1140               		.loc 3 62 0
 1141 0058 F601      		movw r30,r12
 1142 005a 8081      		ld r24,Z
 1143 005c 9181      		ldd r25,Z+1
 1144 005e 8A0D      		add r24,r10
 1145 0060 9B1D      		adc r25,r11
 1146 0062 9183      		std Z+1,r25
 1147 0064 8083      		st Z,r24
  63:../../LUFA-Libs/Arduino_LUFA_Bootloader/LUFA/Drivers/USB/Core/AVR8/Template/Template_Endpoint_RW.c **** 				return ENDPOINT_RWSTREAM_IncompleteTransfer;
 1148               		.loc 3 63 0
 1149 0066 15E0      		ldi r17,lo8(5)
 1150 0068 00C0      		rjmp .L70
 1151               	.L74:
  66:../../LUFA-Libs/Arduino_LUFA_Bootloader/LUFA/Drivers/USB/Core/AVR8/Template/Template_Endpoint_RW.c **** 			if ((ErrorCode = Endpoint_WaitUntilReady()))
 1152               		.loc 3 66 0
 1153 006a 0E94 0000 		call Endpoint_WaitUntilReady
 1154               	.LVL107:
 1155 006e 8823      		tst r24
 1156 0070 01F0      		breq .L79
 1157 0072 00C0      		rjmp .L80
 1158               	.LVL108:
 1159               	.L73:
 1160               	.LBB296:
  71:../../LUFA-Libs/Arduino_LUFA_Bootloader/LUFA/Drivers/USB/Core/AVR8/Template/Template_Endpoint_RW.c **** 			TEMPLATE_TRANSFER_BYTE(DataStream);
 1161               		.loc 3 71 0
 1162 0074 FE01      		movw r30,r28
 1163               	/* #APP */
 1164               	 ;  71 "../../LUFA-Libs/Arduino_LUFA_Bootloader/LUFA/Drivers/USB/Core/AVR8/Template/Template_Endpoi
 1165 0076 8491      		lpm r24, Z
 1166               		
 1167               	 ;  0 "" 2
 1168               	.LVL109:
 1169               	/* #NOAPP */
 1170               	.LBE296:
 1171               	.LBB297:
 1172               	.LBB298:
 624:../../LUFA-Libs/Arduino_LUFA_Bootloader/LUFA/Drivers/USB/Core/AVR8/../AVR8/../AVR8/Endpoint_AVR8.h **** 				UEDATX = Data;
 1173               		.loc 2 624 0
 1174 0078 8093 F100 		sts 241,r24
 1175               	.LBE298:
 1176               	.LBE297:
  72:../../LUFA-Libs/Arduino_LUFA_Bootloader/LUFA/Drivers/USB/Core/AVR8/Template/Template_Endpoint_RW.c **** 			TEMPLATE_BUFFER_MOVE(DataStream, 1);
 1177               		.loc 3 72 0
 1178 007c 2196      		adiw r28,1
 1179               	.LVL110:
  73:../../LUFA-Libs/Arduino_LUFA_Bootloader/LUFA/Drivers/USB/Core/AVR8/Template/Template_Endpoint_RW.c **** 			Length--;
 1180               		.loc 3 73 0
 1181 007e 0894      		sec
 1182 0080 E108      		sbc r14,__zero_reg__
 1183 0082 F108      		sbc r15,__zero_reg__
 1184               	.LVL111:
  74:../../LUFA-Libs/Arduino_LUFA_Bootloader/LUFA/Drivers/USB/Core/AVR8/Template/Template_Endpoint_RW.c **** 			BytesInTransfer++;
 1185               		.loc 3 74 0
 1186 0084 0894      		sec
 1187 0086 A11C      		adc r10,__zero_reg__
 1188 0088 B11C      		adc r11,__zero_reg__
 1189               	.LVL112:
 1190               	.L79:
  50:../../LUFA-Libs/Arduino_LUFA_Bootloader/LUFA/Drivers/USB/Core/AVR8/Template/Template_Endpoint_RW.c **** 	while (Length)
 1191               		.loc 3 50 0 discriminator 1
 1192 008a E114      		cp r14,__zero_reg__
 1193 008c F104      		cpc r15,__zero_reg__
 1194 008e 01F4      		brne .L76
 1195 0090 00C0      		rjmp .L70
 1196               	.LVL113:
 1197               	.L80:
  66:../../LUFA-Libs/Arduino_LUFA_Bootloader/LUFA/Drivers/USB/Core/AVR8/Template/Template_Endpoint_RW.c **** 			if ((ErrorCode = Endpoint_WaitUntilReady()))
 1198               		.loc 3 66 0
 1199 0092 182F      		mov r17,r24
 1200               	.LVL114:
 1201               	.L70:
 1202               		.loc 3 79 0
 1203 0094 812F      		mov r24,r17
 1204               	/* epilogue start */
 1205 0096 DF91      		pop r29
 1206 0098 CF91      		pop r28
 1207               	.LVL115:
 1208 009a 1F91      		pop r17
 1209 009c FF90      		pop r15
 1210 009e EF90      		pop r14
 1211               	.LVL116:
 1212 00a0 DF90      		pop r13
 1213 00a2 CF90      		pop r12
 1214               	.LVL117:
 1215 00a4 BF90      		pop r11
 1216 00a6 AF90      		pop r10
 1217 00a8 0895      		ret
 1218               		.cfi_endproc
 1219               	.LFE87:
 1221               		.section	.text.Endpoint_Write_PStream_BE,"ax",@progbits
 1222               	.global	Endpoint_Write_PStream_BE
 1224               	Endpoint_Write_PStream_BE:
 1225               	.LFB88:
  36:../../LUFA-Libs/Arduino_LUFA_Bootloader/LUFA/Drivers/USB/Core/AVR8/Template/Template_Endpoint_RW.c **** {
 1226               		.loc 3 36 0
 1227               		.cfi_startproc
 1228               	.LVL118:
 1229 0000 AF92      		push r10
 1230               	.LCFI59:
 1231               		.cfi_def_cfa_offset 3
 1232               		.cfi_offset 10, -2
 1233 0002 BF92      		push r11
 1234               	.LCFI60:
 1235               		.cfi_def_cfa_offset 4
 1236               		.cfi_offset 11, -3
 1237 0004 DF92      		push r13
 1238               	.LCFI61:
 1239               		.cfi_def_cfa_offset 5
 1240               		.cfi_offset 13, -4
 1241 0006 EF92      		push r14
 1242               	.LCFI62:
 1243               		.cfi_def_cfa_offset 6
 1244               		.cfi_offset 14, -5
 1245 0008 FF92      		push r15
 1246               	.LCFI63:
 1247               		.cfi_def_cfa_offset 7
 1248               		.cfi_offset 15, -6
 1249 000a 0F93      		push r16
 1250               	.LCFI64:
 1251               		.cfi_def_cfa_offset 8
 1252               		.cfi_offset 16, -7
 1253 000c 1F93      		push r17
 1254               	.LCFI65:
 1255               		.cfi_def_cfa_offset 9
 1256               		.cfi_offset 17, -8
 1257 000e CF93      		push r28
 1258               	.LCFI66:
 1259               		.cfi_def_cfa_offset 10
 1260               		.cfi_offset 28, -9
 1261 0010 DF93      		push r29
 1262               	.LCFI67:
 1263               		.cfi_def_cfa_offset 11
 1264               		.cfi_offset 29, -10
 1265               	/* prologue: function */
 1266               	/* frame size = 0 */
 1267               	/* stack size = 9 */
 1268               	.L__stack_usage = 9
 1269 0012 EC01      		movw r28,r24
 1270 0014 7B01      		movw r14,r22
 1271 0016 5A01      		movw r10,r20
 1272               	.LVL119:
  41:../../LUFA-Libs/Arduino_LUFA_Bootloader/LUFA/Drivers/USB/Core/AVR8/Template/Template_Endpoint_RW.c **** 	if ((ErrorCode = Endpoint_WaitUntilReady()))
 1273               		.loc 3 41 0
 1274 0018 0E94 0000 		call Endpoint_WaitUntilReady
 1275               	.LVL120:
 1276 001c D82E      		mov r13,r24
 1277               	.LVL121:
 1278 001e 8823      		tst r24
 1279 0020 01F0      		breq .+2
 1280 0022 00C0      		rjmp .L82
  37:../../LUFA-Libs/Arduino_LUFA_Bootloader/LUFA/Drivers/USB/Core/AVR8/Template/Template_Endpoint_RW.c **** 	uint8_t* DataStream      = ((uint8_t*)Buffer + TEMPLATE_BUFFER_OFFSET(Length));
 1281               		.loc 3 37 0
 1282 0024 8701      		movw r16,r14
 1283 0026 0150      		subi r16,lo8(-(-1))
 1284 0028 1040      		sbci r17,hi8(-(-1))
 1285 002a 0C0F      		add r16,r28
 1286 002c 1D1F      		adc r17,r29
  44:../../LUFA-Libs/Arduino_LUFA_Bootloader/LUFA/Drivers/USB/Core/AVR8/Template/Template_Endpoint_RW.c **** 	if (BytesProcessed != NULL)
 1287               		.loc 3 44 0
 1288 002e A114      		cp r10,__zero_reg__
 1289 0030 B104      		cpc r11,__zero_reg__
 1290 0032 01F0      		breq .L83
  46:../../LUFA-Libs/Arduino_LUFA_Bootloader/LUFA/Drivers/USB/Core/AVR8/Template/Template_Endpoint_RW.c **** 		Length -= *BytesProcessed;
 1291               		.loc 3 46 0
 1292 0034 F501      		movw r30,r10
 1293 0036 8081      		ld r24,Z
 1294 0038 9181      		ldd r25,Z+1
 1295               	.LVL122:
 1296 003a E81A      		sub r14,r24
 1297 003c F90A      		sbc r15,r25
 1298               	.LVL123:
  47:../../LUFA-Libs/Arduino_LUFA_Bootloader/LUFA/Drivers/USB/Core/AVR8/Template/Template_Endpoint_RW.c **** 		TEMPLATE_BUFFER_MOVE(DataStream, *BytesProcessed);
 1299               		.loc 3 47 0
 1300 003e 081B      		sub r16,r24
 1301 0040 190B      		sbc r17,r25
 1302               	.LVL124:
 1303               	.L83:
  36:../../LUFA-Libs/Arduino_LUFA_Bootloader/LUFA/Drivers/USB/Core/AVR8/Template/Template_Endpoint_RW.c **** {
 1304               		.loc 3 36 0 discriminator 1
 1305 0042 C0E0      		ldi r28,lo8(0)
 1306 0044 D0E0      		ldi r29,hi8(0)
 1307               	.LVL125:
 1308 0046 00C0      		rjmp .L90
 1309               	.LVL126:
 1310               	.L88:
 1311               	.LBB299:
 1312               	.LBB300:
 420:../../LUFA-Libs/Arduino_LUFA_Bootloader/LUFA/Drivers/USB/Core/AVR8/../AVR8/../AVR8/Endpoint_AVR8.h **** 				return ((UEINTX & (1 << RWAL)) ? true : false);
 1313               		.loc 2 420 0
 1314 0048 8091 E800 		lds r24,232
 1315               	.LBE300:
 1316               	.LBE299:
  52:../../LUFA-Libs/Arduino_LUFA_Bootloader/LUFA/Drivers/USB/Core/AVR8/Template/Template_Endpoint_RW.c **** 		if (!(Endpoint_IsReadWriteAllowed()))
 1317               		.loc 3 52 0
 1318 004c 85FD      		sbrc r24,5
 1319 004e 00C0      		rjmp .L85
 1320               	.LBB301:
 1321               	.LBB302:
 516:../../LUFA-Libs/Arduino_LUFA_Bootloader/LUFA/Drivers/USB/Core/AVR8/../AVR8/../AVR8/Endpoint_AVR8.h **** 					UEINTX &= ~((1 << TXINI) | (1 << FIFOCON));
 1322               		.loc 2 516 0
 1323 0050 8091 E800 		lds r24,232
 1324 0054 8E77      		andi r24,lo8(126)
 1325 0056 8093 E800 		sts 232,r24
 1326               	.LBE302:
 1327               	.LBE301:
  57:../../LUFA-Libs/Arduino_LUFA_Bootloader/LUFA/Drivers/USB/Core/AVR8/Template/Template_Endpoint_RW.c **** 			USB_USBTask();
 1328               		.loc 3 57 0
 1329 005a 0E94 0000 		call USB_USBTask
  60:../../LUFA-Libs/Arduino_LUFA_Bootloader/LUFA/Drivers/USB/Core/AVR8/Template/Template_Endpoint_RW.c **** 			if (BytesProcessed != NULL)
 1330               		.loc 3 60 0
 1331 005e A114      		cp r10,__zero_reg__
 1332 0060 B104      		cpc r11,__zero_reg__
 1333 0062 01F0      		breq .L86
  62:../../LUFA-Libs/Arduino_LUFA_Bootloader/LUFA/Drivers/USB/Core/AVR8/Template/Template_Endpoint_RW.c **** 				*BytesProcessed += BytesInTransfer;
 1334               		.loc 3 62 0
 1335 0064 F501      		movw r30,r10
 1336 0066 8081      		ld r24,Z
 1337 0068 9181      		ldd r25,Z+1
 1338 006a 8C0F      		add r24,r28
 1339 006c 9D1F      		adc r25,r29
 1340 006e 9183      		std Z+1,r25
 1341 0070 8083      		st Z,r24
  63:../../LUFA-Libs/Arduino_LUFA_Bootloader/LUFA/Drivers/USB/Core/AVR8/Template/Template_Endpoint_RW.c **** 				return ENDPOINT_RWSTREAM_IncompleteTransfer;
 1342               		.loc 3 63 0
 1343 0072 65E0      		ldi r22,lo8(5)
 1344 0074 D62E      		mov r13,r22
 1345 0076 00C0      		rjmp .L82
 1346               	.L86:
  66:../../LUFA-Libs/Arduino_LUFA_Bootloader/LUFA/Drivers/USB/Core/AVR8/Template/Template_Endpoint_RW.c **** 			if ((ErrorCode = Endpoint_WaitUntilReady()))
 1347               		.loc 3 66 0
 1348 0078 0E94 0000 		call Endpoint_WaitUntilReady
 1349               	.LVL127:
 1350 007c 8823      		tst r24
 1351 007e 01F0      		breq .L90
 1352 0080 00C0      		rjmp .L91
 1353               	.LVL128:
 1354               	.L85:
 1355               	.LBB303:
  71:../../LUFA-Libs/Arduino_LUFA_Bootloader/LUFA/Drivers/USB/Core/AVR8/Template/Template_Endpoint_RW.c **** 			TEMPLATE_TRANSFER_BYTE(DataStream);
 1356               		.loc 3 71 0
 1357 0082 F801      		movw r30,r16
 1358               	/* #APP */
 1359               	 ;  71 "../../LUFA-Libs/Arduino_LUFA_Bootloader/LUFA/Drivers/USB/Core/AVR8/Template/Template_Endpoi
 1360 0084 8491      		lpm r24, Z
 1361               		
 1362               	 ;  0 "" 2
 1363               	.LVL129:
 1364               	/* #NOAPP */
 1365               	.LBE303:
 1366               	.LBB304:
 1367               	.LBB305:
 624:../../LUFA-Libs/Arduino_LUFA_Bootloader/LUFA/Drivers/USB/Core/AVR8/../AVR8/../AVR8/Endpoint_AVR8.h **** 				UEDATX = Data;
 1368               		.loc 2 624 0
 1369 0086 8093 F100 		sts 241,r24
 1370               	.LBE305:
 1371               	.LBE304:
  72:../../LUFA-Libs/Arduino_LUFA_Bootloader/LUFA/Drivers/USB/Core/AVR8/Template/Template_Endpoint_RW.c **** 			TEMPLATE_BUFFER_MOVE(DataStream, 1);
 1372               		.loc 3 72 0
 1373 008a 0150      		subi r16,lo8(-(-1))
 1374 008c 1040      		sbci r17,hi8(-(-1))
 1375               	.LVL130:
  73:../../LUFA-Libs/Arduino_LUFA_Bootloader/LUFA/Drivers/USB/Core/AVR8/Template/Template_Endpoint_RW.c **** 			Length--;
 1376               		.loc 3 73 0
 1377 008e 0894      		sec
 1378 0090 E108      		sbc r14,__zero_reg__
 1379 0092 F108      		sbc r15,__zero_reg__
 1380               	.LVL131:
  74:../../LUFA-Libs/Arduino_LUFA_Bootloader/LUFA/Drivers/USB/Core/AVR8/Template/Template_Endpoint_RW.c **** 			BytesInTransfer++;
 1381               		.loc 3 74 0
 1382 0094 2196      		adiw r28,1
 1383               	.LVL132:
 1384               	.L90:
  50:../../LUFA-Libs/Arduino_LUFA_Bootloader/LUFA/Drivers/USB/Core/AVR8/Template/Template_Endpoint_RW.c **** 	while (Length)
 1385               		.loc 3 50 0 discriminator 1
 1386 0096 E114      		cp r14,__zero_reg__
 1387 0098 F104      		cpc r15,__zero_reg__
 1388 009a 01F4      		brne .L88
 1389 009c 00C0      		rjmp .L82
 1390               	.LVL133:
 1391               	.L91:
  66:../../LUFA-Libs/Arduino_LUFA_Bootloader/LUFA/Drivers/USB/Core/AVR8/Template/Template_Endpoint_RW.c **** 			if ((ErrorCode = Endpoint_WaitUntilReady()))
 1392               		.loc 3 66 0
 1393 009e D82E      		mov r13,r24
 1394               	.LVL134:
 1395               	.L82:
 1396               		.loc 3 79 0
 1397 00a0 8D2D      		mov r24,r13
 1398               	/* epilogue start */
 1399 00a2 DF91      		pop r29
 1400 00a4 CF91      		pop r28
 1401 00a6 1F91      		pop r17
 1402 00a8 0F91      		pop r16
 1403 00aa FF90      		pop r15
 1404 00ac EF90      		pop r14
 1405               	.LVL135:
 1406 00ae DF90      		pop r13
 1407 00b0 BF90      		pop r11
 1408 00b2 AF90      		pop r10
 1409               	.LVL136:
 1410 00b4 0895      		ret
 1411               		.cfi_endproc
 1412               	.LFE88:
 1414               		.section	.text.Endpoint_Write_EStream_LE,"ax",@progbits
 1415               	.global	Endpoint_Write_EStream_LE
 1417               	Endpoint_Write_EStream_LE:
 1418               	.LFB89:
  36:../../LUFA-Libs/Arduino_LUFA_Bootloader/LUFA/Drivers/USB/Core/AVR8/Template/Template_Endpoint_RW.c **** {
 1419               		.loc 3 36 0
 1420               		.cfi_startproc
 1421               	.LVL137:
 1422 0000 AF92      		push r10
 1423               	.LCFI68:
 1424               		.cfi_def_cfa_offset 3
 1425               		.cfi_offset 10, -2
 1426 0002 BF92      		push r11
 1427               	.LCFI69:
 1428               		.cfi_def_cfa_offset 4
 1429               		.cfi_offset 11, -3
 1430 0004 CF92      		push r12
 1431               	.LCFI70:
 1432               		.cfi_def_cfa_offset 5
 1433               		.cfi_offset 12, -4
 1434 0006 DF92      		push r13
 1435               	.LCFI71:
 1436               		.cfi_def_cfa_offset 6
 1437               		.cfi_offset 13, -5
 1438 0008 EF92      		push r14
 1439               	.LCFI72:
 1440               		.cfi_def_cfa_offset 7
 1441               		.cfi_offset 14, -6
 1442 000a FF92      		push r15
 1443               	.LCFI73:
 1444               		.cfi_def_cfa_offset 8
 1445               		.cfi_offset 15, -7
 1446 000c 1F93      		push r17
 1447               	.LCFI74:
 1448               		.cfi_def_cfa_offset 9
 1449               		.cfi_offset 17, -8
 1450 000e CF93      		push r28
 1451               	.LCFI75:
 1452               		.cfi_def_cfa_offset 10
 1453               		.cfi_offset 28, -9
 1454 0010 DF93      		push r29
 1455               	.LCFI76:
 1456               		.cfi_def_cfa_offset 11
 1457               		.cfi_offset 29, -10
 1458               	/* prologue: function */
 1459               	/* frame size = 0 */
 1460               	/* stack size = 9 */
 1461               	.L__stack_usage = 9
 1462 0012 EC01      		movw r28,r24
 1463 0014 7B01      		movw r14,r22
 1464 0016 6A01      		movw r12,r20
 1465               	.LVL138:
  41:../../LUFA-Libs/Arduino_LUFA_Bootloader/LUFA/Drivers/USB/Core/AVR8/Template/Template_Endpoint_RW.c **** 	if ((ErrorCode = Endpoint_WaitUntilReady()))
 1466               		.loc 3 41 0
 1467 0018 0E94 0000 		call Endpoint_WaitUntilReady
 1468               	.LVL139:
 1469 001c 182F      		mov r17,r24
 1470               	.LVL140:
 1471 001e 8823      		tst r24
 1472 0020 01F4      		brne .L93
  44:../../LUFA-Libs/Arduino_LUFA_Bootloader/LUFA/Drivers/USB/Core/AVR8/Template/Template_Endpoint_RW.c **** 	if (BytesProcessed != NULL)
 1473               		.loc 3 44 0
 1474 0022 C114      		cp r12,__zero_reg__
 1475 0024 D104      		cpc r13,__zero_reg__
 1476 0026 01F0      		breq .L94
  46:../../LUFA-Libs/Arduino_LUFA_Bootloader/LUFA/Drivers/USB/Core/AVR8/Template/Template_Endpoint_RW.c **** 		Length -= *BytesProcessed;
 1477               		.loc 3 46 0
 1478 0028 F601      		movw r30,r12
 1479 002a 8081      		ld r24,Z
 1480 002c 9181      		ldd r25,Z+1
 1481               	.LVL141:
 1482 002e E81A      		sub r14,r24
 1483 0030 F90A      		sbc r15,r25
 1484               	.LVL142:
  47:../../LUFA-Libs/Arduino_LUFA_Bootloader/LUFA/Drivers/USB/Core/AVR8/Template/Template_Endpoint_RW.c **** 		TEMPLATE_BUFFER_MOVE(DataStream, *BytesProcessed);
 1485               		.loc 3 47 0
 1486 0032 C80F      		add r28,r24
 1487 0034 D91F      		adc r29,r25
 1488               	.LVL143:
 1489               	.L94:
  37:../../LUFA-Libs/Arduino_LUFA_Bootloader/LUFA/Drivers/USB/Core/AVR8/Template/Template_Endpoint_RW.c **** 	uint8_t* DataStream      = ((uint8_t*)Buffer + TEMPLATE_BUFFER_OFFSET(Length));
 1490               		.loc 3 37 0 discriminator 1
 1491 0036 AA24      		clr r10
 1492 0038 BB24      		clr r11
 1493 003a 00C0      		rjmp .L102
 1494               	.LVL144:
 1495               	.L99:
 1496               	.LBB306:
 1497               	.LBB307:
 420:../../LUFA-Libs/Arduino_LUFA_Bootloader/LUFA/Drivers/USB/Core/AVR8/../AVR8/../AVR8/Endpoint_AVR8.h **** 				return ((UEINTX & (1 << RWAL)) ? true : false);
 1498               		.loc 2 420 0
 1499 003c 8091 E800 		lds r24,232
 1500               	.LBE307:
 1501               	.LBE306:
  52:../../LUFA-Libs/Arduino_LUFA_Bootloader/LUFA/Drivers/USB/Core/AVR8/Template/Template_Endpoint_RW.c **** 		if (!(Endpoint_IsReadWriteAllowed()))
 1502               		.loc 3 52 0
 1503 0040 85FD      		sbrc r24,5
 1504 0042 00C0      		rjmp .L96
 1505               	.LBB308:
 1506               	.LBB309:
 516:../../LUFA-Libs/Arduino_LUFA_Bootloader/LUFA/Drivers/USB/Core/AVR8/../AVR8/../AVR8/Endpoint_AVR8.h **** 					UEINTX &= ~((1 << TXINI) | (1 << FIFOCON));
 1507               		.loc 2 516 0
 1508 0044 8091 E800 		lds r24,232
 1509 0048 8E77      		andi r24,lo8(126)
 1510 004a 8093 E800 		sts 232,r24
 1511               	.LBE309:
 1512               	.LBE308:
  57:../../LUFA-Libs/Arduino_LUFA_Bootloader/LUFA/Drivers/USB/Core/AVR8/Template/Template_Endpoint_RW.c **** 			USB_USBTask();
 1513               		.loc 3 57 0
 1514 004e 0E94 0000 		call USB_USBTask
  60:../../LUFA-Libs/Arduino_LUFA_Bootloader/LUFA/Drivers/USB/Core/AVR8/Template/Template_Endpoint_RW.c **** 			if (BytesProcessed != NULL)
 1515               		.loc 3 60 0
 1516 0052 C114      		cp r12,__zero_reg__
 1517 0054 D104      		cpc r13,__zero_reg__
 1518 0056 01F0      		breq .L97
  62:../../LUFA-Libs/Arduino_LUFA_Bootloader/LUFA/Drivers/USB/Core/AVR8/Template/Template_Endpoint_RW.c **** 				*BytesProcessed += BytesInTransfer;
 1519               		.loc 3 62 0
 1520 0058 F601      		movw r30,r12
 1521 005a 8081      		ld r24,Z
 1522 005c 9181      		ldd r25,Z+1
 1523 005e 8A0D      		add r24,r10
 1524 0060 9B1D      		adc r25,r11
 1525 0062 9183      		std Z+1,r25
 1526 0064 8083      		st Z,r24
  63:../../LUFA-Libs/Arduino_LUFA_Bootloader/LUFA/Drivers/USB/Core/AVR8/Template/Template_Endpoint_RW.c **** 				return ENDPOINT_RWSTREAM_IncompleteTransfer;
 1527               		.loc 3 63 0
 1528 0066 15E0      		ldi r17,lo8(5)
 1529 0068 00C0      		rjmp .L93
 1530               	.L97:
  66:../../LUFA-Libs/Arduino_LUFA_Bootloader/LUFA/Drivers/USB/Core/AVR8/Template/Template_Endpoint_RW.c **** 			if ((ErrorCode = Endpoint_WaitUntilReady()))
 1531               		.loc 3 66 0
 1532 006a 0E94 0000 		call Endpoint_WaitUntilReady
 1533               	.LVL145:
 1534 006e 8823      		tst r24
 1535 0070 01F0      		breq .L102
 1536 0072 00C0      		rjmp .L103
 1537               	.LVL146:
 1538               	.L96:
  71:../../LUFA-Libs/Arduino_LUFA_Bootloader/LUFA/Drivers/USB/Core/AVR8/Template/Template_Endpoint_RW.c **** 			TEMPLATE_TRANSFER_BYTE(DataStream);
 1539               		.loc 3 71 0
 1540 0074 CE01      		movw r24,r28
 1541 0076 0E94 0000 		call __eerd_byte_m32u4
 1542               	.LVL147:
 1543               	.LBB310:
 1544               	.LBB311:
 624:../../LUFA-Libs/Arduino_LUFA_Bootloader/LUFA/Drivers/USB/Core/AVR8/../AVR8/../AVR8/Endpoint_AVR8.h **** 				UEDATX = Data;
 1545               		.loc 2 624 0
 1546 007a 8093 F100 		sts 241,r24
 1547               	.LBE311:
 1548               	.LBE310:
  72:../../LUFA-Libs/Arduino_LUFA_Bootloader/LUFA/Drivers/USB/Core/AVR8/Template/Template_Endpoint_RW.c **** 			TEMPLATE_BUFFER_MOVE(DataStream, 1);
 1549               		.loc 3 72 0
 1550 007e 2196      		adiw r28,1
 1551               	.LVL148:
  73:../../LUFA-Libs/Arduino_LUFA_Bootloader/LUFA/Drivers/USB/Core/AVR8/Template/Template_Endpoint_RW.c **** 			Length--;
 1552               		.loc 3 73 0
 1553 0080 0894      		sec
 1554 0082 E108      		sbc r14,__zero_reg__
 1555 0084 F108      		sbc r15,__zero_reg__
 1556               	.LVL149:
  74:../../LUFA-Libs/Arduino_LUFA_Bootloader/LUFA/Drivers/USB/Core/AVR8/Template/Template_Endpoint_RW.c **** 			BytesInTransfer++;
 1557               		.loc 3 74 0
 1558 0086 0894      		sec
 1559 0088 A11C      		adc r10,__zero_reg__
 1560 008a B11C      		adc r11,__zero_reg__
 1561               	.LVL150:
 1562               	.L102:
  50:../../LUFA-Libs/Arduino_LUFA_Bootloader/LUFA/Drivers/USB/Core/AVR8/Template/Template_Endpoint_RW.c **** 	while (Length)
 1563               		.loc 3 50 0 discriminator 1
 1564 008c E114      		cp r14,__zero_reg__
 1565 008e F104      		cpc r15,__zero_reg__
 1566 0090 01F4      		brne .L99
 1567 0092 00C0      		rjmp .L93
 1568               	.LVL151:
 1569               	.L103:
  66:../../LUFA-Libs/Arduino_LUFA_Bootloader/LUFA/Drivers/USB/Core/AVR8/Template/Template_Endpoint_RW.c **** 			if ((ErrorCode = Endpoint_WaitUntilReady()))
 1570               		.loc 3 66 0
 1571 0094 182F      		mov r17,r24
 1572               	.LVL152:
 1573               	.L93:
 1574               		.loc 3 79 0
 1575 0096 812F      		mov r24,r17
 1576               	/* epilogue start */
 1577 0098 DF91      		pop r29
 1578 009a CF91      		pop r28
 1579               	.LVL153:
 1580 009c 1F91      		pop r17
 1581 009e FF90      		pop r15
 1582 00a0 EF90      		pop r14
 1583               	.LVL154:
 1584 00a2 DF90      		pop r13
 1585 00a4 CF90      		pop r12
 1586               	.LVL155:
 1587 00a6 BF90      		pop r11
 1588 00a8 AF90      		pop r10
 1589 00aa 0895      		ret
 1590               		.cfi_endproc
 1591               	.LFE89:
 1593               		.section	.text.Endpoint_Write_EStream_BE,"ax",@progbits
 1594               	.global	Endpoint_Write_EStream_BE
 1596               	Endpoint_Write_EStream_BE:
 1597               	.LFB90:
  36:../../LUFA-Libs/Arduino_LUFA_Bootloader/LUFA/Drivers/USB/Core/AVR8/Template/Template_Endpoint_RW.c **** {
 1598               		.loc 3 36 0
 1599               		.cfi_startproc
 1600               	.LVL156:
 1601 0000 AF92      		push r10
 1602               	.LCFI77:
 1603               		.cfi_def_cfa_offset 3
 1604               		.cfi_offset 10, -2
 1605 0002 BF92      		push r11
 1606               	.LCFI78:
 1607               		.cfi_def_cfa_offset 4
 1608               		.cfi_offset 11, -3
 1609 0004 DF92      		push r13
 1610               	.LCFI79:
 1611               		.cfi_def_cfa_offset 5
 1612               		.cfi_offset 13, -4
 1613 0006 EF92      		push r14
 1614               	.LCFI80:
 1615               		.cfi_def_cfa_offset 6
 1616               		.cfi_offset 14, -5
 1617 0008 FF92      		push r15
 1618               	.LCFI81:
 1619               		.cfi_def_cfa_offset 7
 1620               		.cfi_offset 15, -6
 1621 000a 0F93      		push r16
 1622               	.LCFI82:
 1623               		.cfi_def_cfa_offset 8
 1624               		.cfi_offset 16, -7
 1625 000c 1F93      		push r17
 1626               	.LCFI83:
 1627               		.cfi_def_cfa_offset 9
 1628               		.cfi_offset 17, -8
 1629 000e CF93      		push r28
 1630               	.LCFI84:
 1631               		.cfi_def_cfa_offset 10
 1632               		.cfi_offset 28, -9
 1633 0010 DF93      		push r29
 1634               	.LCFI85:
 1635               		.cfi_def_cfa_offset 11
 1636               		.cfi_offset 29, -10
 1637               	/* prologue: function */
 1638               	/* frame size = 0 */
 1639               	/* stack size = 9 */
 1640               	.L__stack_usage = 9
 1641 0012 EC01      		movw r28,r24
 1642 0014 7B01      		movw r14,r22
 1643 0016 5A01      		movw r10,r20
 1644               	.LVL157:
  41:../../LUFA-Libs/Arduino_LUFA_Bootloader/LUFA/Drivers/USB/Core/AVR8/Template/Template_Endpoint_RW.c **** 	if ((ErrorCode = Endpoint_WaitUntilReady()))
 1645               		.loc 3 41 0
 1646 0018 0E94 0000 		call Endpoint_WaitUntilReady
 1647               	.LVL158:
 1648 001c D82E      		mov r13,r24
 1649               	.LVL159:
 1650 001e 8823      		tst r24
 1651 0020 01F0      		breq .+2
 1652 0022 00C0      		rjmp .L105
  37:../../LUFA-Libs/Arduino_LUFA_Bootloader/LUFA/Drivers/USB/Core/AVR8/Template/Template_Endpoint_RW.c **** 	uint8_t* DataStream      = ((uint8_t*)Buffer + TEMPLATE_BUFFER_OFFSET(Length));
 1653               		.loc 3 37 0
 1654 0024 8701      		movw r16,r14
 1655 0026 0150      		subi r16,lo8(-(-1))
 1656 0028 1040      		sbci r17,hi8(-(-1))
 1657 002a 0C0F      		add r16,r28
 1658 002c 1D1F      		adc r17,r29
  44:../../LUFA-Libs/Arduino_LUFA_Bootloader/LUFA/Drivers/USB/Core/AVR8/Template/Template_Endpoint_RW.c **** 	if (BytesProcessed != NULL)
 1659               		.loc 3 44 0
 1660 002e A114      		cp r10,__zero_reg__
 1661 0030 B104      		cpc r11,__zero_reg__
 1662 0032 01F0      		breq .L106
  46:../../LUFA-Libs/Arduino_LUFA_Bootloader/LUFA/Drivers/USB/Core/AVR8/Template/Template_Endpoint_RW.c **** 		Length -= *BytesProcessed;
 1663               		.loc 3 46 0
 1664 0034 F501      		movw r30,r10
 1665 0036 8081      		ld r24,Z
 1666 0038 9181      		ldd r25,Z+1
 1667               	.LVL160:
 1668 003a E81A      		sub r14,r24
 1669 003c F90A      		sbc r15,r25
 1670               	.LVL161:
  47:../../LUFA-Libs/Arduino_LUFA_Bootloader/LUFA/Drivers/USB/Core/AVR8/Template/Template_Endpoint_RW.c **** 		TEMPLATE_BUFFER_MOVE(DataStream, *BytesProcessed);
 1671               		.loc 3 47 0
 1672 003e 081B      		sub r16,r24
 1673 0040 190B      		sbc r17,r25
 1674               	.LVL162:
 1675               	.L106:
  36:../../LUFA-Libs/Arduino_LUFA_Bootloader/LUFA/Drivers/USB/Core/AVR8/Template/Template_Endpoint_RW.c **** {
 1676               		.loc 3 36 0 discriminator 1
 1677 0042 C0E0      		ldi r28,lo8(0)
 1678 0044 D0E0      		ldi r29,hi8(0)
 1679               	.LVL163:
 1680 0046 00C0      		rjmp .L113
 1681               	.LVL164:
 1682               	.L111:
 1683               	.LBB312:
 1684               	.LBB313:
 420:../../LUFA-Libs/Arduino_LUFA_Bootloader/LUFA/Drivers/USB/Core/AVR8/../AVR8/../AVR8/Endpoint_AVR8.h **** 				return ((UEINTX & (1 << RWAL)) ? true : false);
 1685               		.loc 2 420 0
 1686 0048 8091 E800 		lds r24,232
 1687               	.LBE313:
 1688               	.LBE312:
  52:../../LUFA-Libs/Arduino_LUFA_Bootloader/LUFA/Drivers/USB/Core/AVR8/Template/Template_Endpoint_RW.c **** 		if (!(Endpoint_IsReadWriteAllowed()))
 1689               		.loc 3 52 0
 1690 004c 85FD      		sbrc r24,5
 1691 004e 00C0      		rjmp .L108
 1692               	.LBB314:
 1693               	.LBB315:
 516:../../LUFA-Libs/Arduino_LUFA_Bootloader/LUFA/Drivers/USB/Core/AVR8/../AVR8/../AVR8/Endpoint_AVR8.h **** 					UEINTX &= ~((1 << TXINI) | (1 << FIFOCON));
 1694               		.loc 2 516 0
 1695 0050 8091 E800 		lds r24,232
 1696 0054 8E77      		andi r24,lo8(126)
 1697 0056 8093 E800 		sts 232,r24
 1698               	.LBE315:
 1699               	.LBE314:
  57:../../LUFA-Libs/Arduino_LUFA_Bootloader/LUFA/Drivers/USB/Core/AVR8/Template/Template_Endpoint_RW.c **** 			USB_USBTask();
 1700               		.loc 3 57 0
 1701 005a 0E94 0000 		call USB_USBTask
  60:../../LUFA-Libs/Arduino_LUFA_Bootloader/LUFA/Drivers/USB/Core/AVR8/Template/Template_Endpoint_RW.c **** 			if (BytesProcessed != NULL)
 1702               		.loc 3 60 0
 1703 005e A114      		cp r10,__zero_reg__
 1704 0060 B104      		cpc r11,__zero_reg__
 1705 0062 01F0      		breq .L109
  62:../../LUFA-Libs/Arduino_LUFA_Bootloader/LUFA/Drivers/USB/Core/AVR8/Template/Template_Endpoint_RW.c **** 				*BytesProcessed += BytesInTransfer;
 1706               		.loc 3 62 0
 1707 0064 F501      		movw r30,r10
 1708 0066 8081      		ld r24,Z
 1709 0068 9181      		ldd r25,Z+1
 1710 006a 8C0F      		add r24,r28
 1711 006c 9D1F      		adc r25,r29
 1712 006e 9183      		std Z+1,r25
 1713 0070 8083      		st Z,r24
  63:../../LUFA-Libs/Arduino_LUFA_Bootloader/LUFA/Drivers/USB/Core/AVR8/Template/Template_Endpoint_RW.c **** 				return ENDPOINT_RWSTREAM_IncompleteTransfer;
 1714               		.loc 3 63 0
 1715 0072 75E0      		ldi r23,lo8(5)
 1716 0074 D72E      		mov r13,r23
 1717 0076 00C0      		rjmp .L105
 1718               	.L109:
  66:../../LUFA-Libs/Arduino_LUFA_Bootloader/LUFA/Drivers/USB/Core/AVR8/Template/Template_Endpoint_RW.c **** 			if ((ErrorCode = Endpoint_WaitUntilReady()))
 1719               		.loc 3 66 0
 1720 0078 0E94 0000 		call Endpoint_WaitUntilReady
 1721               	.LVL165:
 1722 007c 8823      		tst r24
 1723 007e 01F0      		breq .L113
 1724 0080 00C0      		rjmp .L114
 1725               	.LVL166:
 1726               	.L108:
  71:../../LUFA-Libs/Arduino_LUFA_Bootloader/LUFA/Drivers/USB/Core/AVR8/Template/Template_Endpoint_RW.c **** 			TEMPLATE_TRANSFER_BYTE(DataStream);
 1727               		.loc 3 71 0
 1728 0082 C801      		movw r24,r16
 1729 0084 0E94 0000 		call __eerd_byte_m32u4
 1730               	.LVL167:
 1731               	.LBB316:
 1732               	.LBB317:
 624:../../LUFA-Libs/Arduino_LUFA_Bootloader/LUFA/Drivers/USB/Core/AVR8/../AVR8/../AVR8/Endpoint_AVR8.h **** 				UEDATX = Data;
 1733               		.loc 2 624 0
 1734 0088 8093 F100 		sts 241,r24
 1735               	.LBE317:
 1736               	.LBE316:
  72:../../LUFA-Libs/Arduino_LUFA_Bootloader/LUFA/Drivers/USB/Core/AVR8/Template/Template_Endpoint_RW.c **** 			TEMPLATE_BUFFER_MOVE(DataStream, 1);
 1737               		.loc 3 72 0
 1738 008c 0150      		subi r16,lo8(-(-1))
 1739 008e 1040      		sbci r17,hi8(-(-1))
 1740               	.LVL168:
  73:../../LUFA-Libs/Arduino_LUFA_Bootloader/LUFA/Drivers/USB/Core/AVR8/Template/Template_Endpoint_RW.c **** 			Length--;
 1741               		.loc 3 73 0
 1742 0090 0894      		sec
 1743 0092 E108      		sbc r14,__zero_reg__
 1744 0094 F108      		sbc r15,__zero_reg__
 1745               	.LVL169:
  74:../../LUFA-Libs/Arduino_LUFA_Bootloader/LUFA/Drivers/USB/Core/AVR8/Template/Template_Endpoint_RW.c **** 			BytesInTransfer++;
 1746               		.loc 3 74 0
 1747 0096 2196      		adiw r28,1
 1748               	.LVL170:
 1749               	.L113:
  50:../../LUFA-Libs/Arduino_LUFA_Bootloader/LUFA/Drivers/USB/Core/AVR8/Template/Template_Endpoint_RW.c **** 	while (Length)
 1750               		.loc 3 50 0 discriminator 1
 1751 0098 E114      		cp r14,__zero_reg__
 1752 009a F104      		cpc r15,__zero_reg__
 1753 009c 01F4      		brne .L111
 1754 009e 00C0      		rjmp .L105
 1755               	.LVL171:
 1756               	.L114:
  66:../../LUFA-Libs/Arduino_LUFA_Bootloader/LUFA/Drivers/USB/Core/AVR8/Template/Template_Endpoint_RW.c **** 			if ((ErrorCode = Endpoint_WaitUntilReady()))
 1757               		.loc 3 66 0
 1758 00a0 D82E      		mov r13,r24
 1759               	.LVL172:
 1760               	.L105:
 1761               		.loc 3 79 0
 1762 00a2 8D2D      		mov r24,r13
 1763               	/* epilogue start */
 1764 00a4 DF91      		pop r29
 1765 00a6 CF91      		pop r28
 1766 00a8 1F91      		pop r17
 1767 00aa 0F91      		pop r16
 1768 00ac FF90      		pop r15
 1769 00ae EF90      		pop r14
 1770               	.LVL173:
 1771 00b0 DF90      		pop r13
 1772 00b2 BF90      		pop r11
 1773 00b4 AF90      		pop r10
 1774               	.LVL174:
 1775 00b6 0895      		ret
 1776               		.cfi_endproc
 1777               	.LFE90:
 1779               		.section	.text.Endpoint_Read_EStream_LE,"ax",@progbits
 1780               	.global	Endpoint_Read_EStream_LE
 1782               	Endpoint_Read_EStream_LE:
 1783               	.LFB91:
  36:../../LUFA-Libs/Arduino_LUFA_Bootloader/LUFA/Drivers/USB/Core/AVR8/Template/Template_Endpoint_RW.c **** {
 1784               		.loc 3 36 0
 1785               		.cfi_startproc
 1786               	.LVL175:
 1787 0000 AF92      		push r10
 1788               	.LCFI86:
 1789               		.cfi_def_cfa_offset 3
 1790               		.cfi_offset 10, -2
 1791 0002 BF92      		push r11
 1792               	.LCFI87:
 1793               		.cfi_def_cfa_offset 4
 1794               		.cfi_offset 11, -3
 1795 0004 CF92      		push r12
 1796               	.LCFI88:
 1797               		.cfi_def_cfa_offset 5
 1798               		.cfi_offset 12, -4
 1799 0006 DF92      		push r13
 1800               	.LCFI89:
 1801               		.cfi_def_cfa_offset 6
 1802               		.cfi_offset 13, -5
 1803 0008 EF92      		push r14
 1804               	.LCFI90:
 1805               		.cfi_def_cfa_offset 7
 1806               		.cfi_offset 14, -6
 1807 000a FF92      		push r15
 1808               	.LCFI91:
 1809               		.cfi_def_cfa_offset 8
 1810               		.cfi_offset 15, -7
 1811 000c 1F93      		push r17
 1812               	.LCFI92:
 1813               		.cfi_def_cfa_offset 9
 1814               		.cfi_offset 17, -8
 1815 000e CF93      		push r28
 1816               	.LCFI93:
 1817               		.cfi_def_cfa_offset 10
 1818               		.cfi_offset 28, -9
 1819 0010 DF93      		push r29
 1820               	.LCFI94:
 1821               		.cfi_def_cfa_offset 11
 1822               		.cfi_offset 29, -10
 1823               	/* prologue: function */
 1824               	/* frame size = 0 */
 1825               	/* stack size = 9 */
 1826               	.L__stack_usage = 9
 1827 0012 EC01      		movw r28,r24
 1828 0014 7B01      		movw r14,r22
 1829 0016 6A01      		movw r12,r20
 1830               	.LVL176:
  41:../../LUFA-Libs/Arduino_LUFA_Bootloader/LUFA/Drivers/USB/Core/AVR8/Template/Template_Endpoint_RW.c **** 	if ((ErrorCode = Endpoint_WaitUntilReady()))
 1831               		.loc 3 41 0
 1832 0018 0E94 0000 		call Endpoint_WaitUntilReady
 1833               	.LVL177:
 1834 001c 182F      		mov r17,r24
 1835               	.LVL178:
 1836 001e 8823      		tst r24
 1837 0020 01F4      		brne .L116
  44:../../LUFA-Libs/Arduino_LUFA_Bootloader/LUFA/Drivers/USB/Core/AVR8/Template/Template_Endpoint_RW.c **** 	if (BytesProcessed != NULL)
 1838               		.loc 3 44 0
 1839 0022 C114      		cp r12,__zero_reg__
 1840 0024 D104      		cpc r13,__zero_reg__
 1841 0026 01F0      		breq .L117
  46:../../LUFA-Libs/Arduino_LUFA_Bootloader/LUFA/Drivers/USB/Core/AVR8/Template/Template_Endpoint_RW.c **** 		Length -= *BytesProcessed;
 1842               		.loc 3 46 0
 1843 0028 F601      		movw r30,r12
 1844 002a 8081      		ld r24,Z
 1845 002c 9181      		ldd r25,Z+1
 1846               	.LVL179:
 1847 002e E81A      		sub r14,r24
 1848 0030 F90A      		sbc r15,r25
 1849               	.LVL180:
  47:../../LUFA-Libs/Arduino_LUFA_Bootloader/LUFA/Drivers/USB/Core/AVR8/Template/Template_Endpoint_RW.c **** 		TEMPLATE_BUFFER_MOVE(DataStream, *BytesProcessed);
 1850               		.loc 3 47 0
 1851 0032 C80F      		add r28,r24
 1852 0034 D91F      		adc r29,r25
 1853               	.LVL181:
 1854               	.L117:
  37:../../LUFA-Libs/Arduino_LUFA_Bootloader/LUFA/Drivers/USB/Core/AVR8/Template/Template_Endpoint_RW.c **** 	uint8_t* DataStream      = ((uint8_t*)Buffer + TEMPLATE_BUFFER_OFFSET(Length));
 1855               		.loc 3 37 0 discriminator 1
 1856 0036 AA24      		clr r10
 1857 0038 BB24      		clr r11
 1858 003a 00C0      		rjmp .L125
 1859               	.LVL182:
 1860               	.L122:
 1861               	.LBB318:
 1862               	.LBB319:
 420:../../LUFA-Libs/Arduino_LUFA_Bootloader/LUFA/Drivers/USB/Core/AVR8/../AVR8/../AVR8/Endpoint_AVR8.h **** 				return ((UEINTX & (1 << RWAL)) ? true : false);
 1863               		.loc 2 420 0
 1864 003c 8091 E800 		lds r24,232
 1865               	.LBE319:
 1866               	.LBE318:
  52:../../LUFA-Libs/Arduino_LUFA_Bootloader/LUFA/Drivers/USB/Core/AVR8/Template/Template_Endpoint_RW.c **** 		if (!(Endpoint_IsReadWriteAllowed()))
 1867               		.loc 3 52 0
 1868 0040 85FD      		sbrc r24,5
 1869 0042 00C0      		rjmp .L119
 1870               	.LBB320:
 1871               	.LBB321:
 531:../../LUFA-Libs/Arduino_LUFA_Bootloader/LUFA/Drivers/USB/Core/AVR8/../AVR8/../AVR8/Endpoint_AVR8.h **** 					UEINTX &= ~((1 << RXOUTI) | (1 << FIFOCON));
 1872               		.loc 2 531 0
 1873 0044 8091 E800 		lds r24,232
 1874 0048 8B77      		andi r24,lo8(123)
 1875 004a 8093 E800 		sts 232,r24
 1876               	.LBE321:
 1877               	.LBE320:
  57:../../LUFA-Libs/Arduino_LUFA_Bootloader/LUFA/Drivers/USB/Core/AVR8/Template/Template_Endpoint_RW.c **** 			USB_USBTask();
 1878               		.loc 3 57 0
 1879 004e 0E94 0000 		call USB_USBTask
  60:../../LUFA-Libs/Arduino_LUFA_Bootloader/LUFA/Drivers/USB/Core/AVR8/Template/Template_Endpoint_RW.c **** 			if (BytesProcessed != NULL)
 1880               		.loc 3 60 0
 1881 0052 C114      		cp r12,__zero_reg__
 1882 0054 D104      		cpc r13,__zero_reg__
 1883 0056 01F0      		breq .L120
  62:../../LUFA-Libs/Arduino_LUFA_Bootloader/LUFA/Drivers/USB/Core/AVR8/Template/Template_Endpoint_RW.c **** 				*BytesProcessed += BytesInTransfer;
 1884               		.loc 3 62 0
 1885 0058 F601      		movw r30,r12
 1886 005a 8081      		ld r24,Z
 1887 005c 9181      		ldd r25,Z+1
 1888 005e 8A0D      		add r24,r10
 1889 0060 9B1D      		adc r25,r11
 1890 0062 9183      		std Z+1,r25
 1891 0064 8083      		st Z,r24
  63:../../LUFA-Libs/Arduino_LUFA_Bootloader/LUFA/Drivers/USB/Core/AVR8/Template/Template_Endpoint_RW.c **** 				return ENDPOINT_RWSTREAM_IncompleteTransfer;
 1892               		.loc 3 63 0
 1893 0066 15E0      		ldi r17,lo8(5)
 1894 0068 00C0      		rjmp .L116
 1895               	.L120:
  66:../../LUFA-Libs/Arduino_LUFA_Bootloader/LUFA/Drivers/USB/Core/AVR8/Template/Template_Endpoint_RW.c **** 			if ((ErrorCode = Endpoint_WaitUntilReady()))
 1896               		.loc 3 66 0
 1897 006a 0E94 0000 		call Endpoint_WaitUntilReady
 1898               	.LVL183:
 1899 006e 8823      		tst r24
 1900 0070 01F0      		breq .L125
 1901 0072 00C0      		rjmp .L126
 1902               	.LVL184:
 1903               	.L119:
 1904               	.LBB322:
 1905               	.LBB323:
 612:../../LUFA-Libs/Arduino_LUFA_Bootloader/LUFA/Drivers/USB/Core/AVR8/../AVR8/../AVR8/Endpoint_AVR8.h **** 				return UEDATX;
 1906               		.loc 2 612 0
 1907 0074 6091 F100 		lds r22,241
 1908               	.LBE323:
 1909               	.LBE322:
  71:../../LUFA-Libs/Arduino_LUFA_Bootloader/LUFA/Drivers/USB/Core/AVR8/Template/Template_Endpoint_RW.c **** 			TEMPLATE_TRANSFER_BYTE(DataStream);
 1910               		.loc 3 71 0
 1911 0078 CE01      		movw r24,r28
 1912 007a 0E94 0000 		call __eeupd_byte_m32u4
  72:../../LUFA-Libs/Arduino_LUFA_Bootloader/LUFA/Drivers/USB/Core/AVR8/Template/Template_Endpoint_RW.c **** 			TEMPLATE_BUFFER_MOVE(DataStream, 1);
 1913               		.loc 3 72 0
 1914 007e 2196      		adiw r28,1
 1915               	.LVL185:
  73:../../LUFA-Libs/Arduino_LUFA_Bootloader/LUFA/Drivers/USB/Core/AVR8/Template/Template_Endpoint_RW.c **** 			Length--;
 1916               		.loc 3 73 0
 1917 0080 0894      		sec
 1918 0082 E108      		sbc r14,__zero_reg__
 1919 0084 F108      		sbc r15,__zero_reg__
 1920               	.LVL186:
  74:../../LUFA-Libs/Arduino_LUFA_Bootloader/LUFA/Drivers/USB/Core/AVR8/Template/Template_Endpoint_RW.c **** 			BytesInTransfer++;
 1921               		.loc 3 74 0
 1922 0086 0894      		sec
 1923 0088 A11C      		adc r10,__zero_reg__
 1924 008a B11C      		adc r11,__zero_reg__
 1925               	.LVL187:
 1926               	.L125:
  50:../../LUFA-Libs/Arduino_LUFA_Bootloader/LUFA/Drivers/USB/Core/AVR8/Template/Template_Endpoint_RW.c **** 	while (Length)
 1927               		.loc 3 50 0 discriminator 1
 1928 008c E114      		cp r14,__zero_reg__
 1929 008e F104      		cpc r15,__zero_reg__
 1930 0090 01F4      		brne .L122
 1931 0092 00C0      		rjmp .L116
 1932               	.LVL188:
 1933               	.L126:
  66:../../LUFA-Libs/Arduino_LUFA_Bootloader/LUFA/Drivers/USB/Core/AVR8/Template/Template_Endpoint_RW.c **** 			if ((ErrorCode = Endpoint_WaitUntilReady()))
 1934               		.loc 3 66 0
 1935 0094 182F      		mov r17,r24
 1936               	.LVL189:
 1937               	.L116:
 1938               		.loc 3 79 0
 1939 0096 812F      		mov r24,r17
 1940               	/* epilogue start */
 1941 0098 DF91      		pop r29
 1942 009a CF91      		pop r28
 1943               	.LVL190:
 1944 009c 1F91      		pop r17
 1945 009e FF90      		pop r15
 1946 00a0 EF90      		pop r14
 1947               	.LVL191:
 1948 00a2 DF90      		pop r13
 1949 00a4 CF90      		pop r12
 1950               	.LVL192:
 1951 00a6 BF90      		pop r11
 1952 00a8 AF90      		pop r10
 1953 00aa 0895      		ret
 1954               		.cfi_endproc
 1955               	.LFE91:
 1957               		.section	.text.Endpoint_Read_EStream_BE,"ax",@progbits
 1958               	.global	Endpoint_Read_EStream_BE
 1960               	Endpoint_Read_EStream_BE:
 1961               	.LFB92:
  36:../../LUFA-Libs/Arduino_LUFA_Bootloader/LUFA/Drivers/USB/Core/AVR8/Template/Template_Endpoint_RW.c **** {
 1962               		.loc 3 36 0
 1963               		.cfi_startproc
 1964               	.LVL193:
 1965 0000 AF92      		push r10
 1966               	.LCFI95:
 1967               		.cfi_def_cfa_offset 3
 1968               		.cfi_offset 10, -2
 1969 0002 BF92      		push r11
 1970               	.LCFI96:
 1971               		.cfi_def_cfa_offset 4
 1972               		.cfi_offset 11, -3
 1973 0004 DF92      		push r13
 1974               	.LCFI97:
 1975               		.cfi_def_cfa_offset 5
 1976               		.cfi_offset 13, -4
 1977 0006 EF92      		push r14
 1978               	.LCFI98:
 1979               		.cfi_def_cfa_offset 6
 1980               		.cfi_offset 14, -5
 1981 0008 FF92      		push r15
 1982               	.LCFI99:
 1983               		.cfi_def_cfa_offset 7
 1984               		.cfi_offset 15, -6
 1985 000a 0F93      		push r16
 1986               	.LCFI100:
 1987               		.cfi_def_cfa_offset 8
 1988               		.cfi_offset 16, -7
 1989 000c 1F93      		push r17
 1990               	.LCFI101:
 1991               		.cfi_def_cfa_offset 9
 1992               		.cfi_offset 17, -8
 1993 000e CF93      		push r28
 1994               	.LCFI102:
 1995               		.cfi_def_cfa_offset 10
 1996               		.cfi_offset 28, -9
 1997 0010 DF93      		push r29
 1998               	.LCFI103:
 1999               		.cfi_def_cfa_offset 11
 2000               		.cfi_offset 29, -10
 2001               	/* prologue: function */
 2002               	/* frame size = 0 */
 2003               	/* stack size = 9 */
 2004               	.L__stack_usage = 9
 2005 0012 EC01      		movw r28,r24
 2006 0014 7B01      		movw r14,r22
 2007 0016 5A01      		movw r10,r20
 2008               	.LVL194:
  41:../../LUFA-Libs/Arduino_LUFA_Bootloader/LUFA/Drivers/USB/Core/AVR8/Template/Template_Endpoint_RW.c **** 	if ((ErrorCode = Endpoint_WaitUntilReady()))
 2009               		.loc 3 41 0
 2010 0018 0E94 0000 		call Endpoint_WaitUntilReady
 2011               	.LVL195:
 2012 001c D82E      		mov r13,r24
 2013               	.LVL196:
 2014 001e 8823      		tst r24
 2015 0020 01F0      		breq .+2
 2016 0022 00C0      		rjmp .L128
  37:../../LUFA-Libs/Arduino_LUFA_Bootloader/LUFA/Drivers/USB/Core/AVR8/Template/Template_Endpoint_RW.c **** 	uint8_t* DataStream      = ((uint8_t*)Buffer + TEMPLATE_BUFFER_OFFSET(Length));
 2017               		.loc 3 37 0
 2018 0024 8701      		movw r16,r14
 2019 0026 0150      		subi r16,lo8(-(-1))
 2020 0028 1040      		sbci r17,hi8(-(-1))
 2021 002a 0C0F      		add r16,r28
 2022 002c 1D1F      		adc r17,r29
  44:../../LUFA-Libs/Arduino_LUFA_Bootloader/LUFA/Drivers/USB/Core/AVR8/Template/Template_Endpoint_RW.c **** 	if (BytesProcessed != NULL)
 2023               		.loc 3 44 0
 2024 002e A114      		cp r10,__zero_reg__
 2025 0030 B104      		cpc r11,__zero_reg__
 2026 0032 01F0      		breq .L129
  46:../../LUFA-Libs/Arduino_LUFA_Bootloader/LUFA/Drivers/USB/Core/AVR8/Template/Template_Endpoint_RW.c **** 		Length -= *BytesProcessed;
 2027               		.loc 3 46 0
 2028 0034 F501      		movw r30,r10
 2029 0036 8081      		ld r24,Z
 2030 0038 9181      		ldd r25,Z+1
 2031               	.LVL197:
 2032 003a E81A      		sub r14,r24
 2033 003c F90A      		sbc r15,r25
 2034               	.LVL198:
  47:../../LUFA-Libs/Arduino_LUFA_Bootloader/LUFA/Drivers/USB/Core/AVR8/Template/Template_Endpoint_RW.c **** 		TEMPLATE_BUFFER_MOVE(DataStream, *BytesProcessed);
 2035               		.loc 3 47 0
 2036 003e 081B      		sub r16,r24
 2037 0040 190B      		sbc r17,r25
 2038               	.LVL199:
 2039               	.L129:
  36:../../LUFA-Libs/Arduino_LUFA_Bootloader/LUFA/Drivers/USB/Core/AVR8/Template/Template_Endpoint_RW.c **** {
 2040               		.loc 3 36 0 discriminator 1
 2041 0042 C0E0      		ldi r28,lo8(0)
 2042 0044 D0E0      		ldi r29,hi8(0)
 2043               	.LVL200:
 2044 0046 00C0      		rjmp .L136
 2045               	.LVL201:
 2046               	.L134:
 2047               	.LBB324:
 2048               	.LBB325:
 420:../../LUFA-Libs/Arduino_LUFA_Bootloader/LUFA/Drivers/USB/Core/AVR8/../AVR8/../AVR8/Endpoint_AVR8.h **** 				return ((UEINTX & (1 << RWAL)) ? true : false);
 2049               		.loc 2 420 0
 2050 0048 8091 E800 		lds r24,232
 2051               	.LBE325:
 2052               	.LBE324:
  52:../../LUFA-Libs/Arduino_LUFA_Bootloader/LUFA/Drivers/USB/Core/AVR8/Template/Template_Endpoint_RW.c **** 		if (!(Endpoint_IsReadWriteAllowed()))
 2053               		.loc 3 52 0
 2054 004c 85FD      		sbrc r24,5
 2055 004e 00C0      		rjmp .L131
 2056               	.LBB326:
 2057               	.LBB327:
 531:../../LUFA-Libs/Arduino_LUFA_Bootloader/LUFA/Drivers/USB/Core/AVR8/../AVR8/../AVR8/Endpoint_AVR8.h **** 					UEINTX &= ~((1 << RXOUTI) | (1 << FIFOCON));
 2058               		.loc 2 531 0
 2059 0050 8091 E800 		lds r24,232
 2060 0054 8B77      		andi r24,lo8(123)
 2061 0056 8093 E800 		sts 232,r24
 2062               	.LBE327:
 2063               	.LBE326:
  57:../../LUFA-Libs/Arduino_LUFA_Bootloader/LUFA/Drivers/USB/Core/AVR8/Template/Template_Endpoint_RW.c **** 			USB_USBTask();
 2064               		.loc 3 57 0
 2065 005a 0E94 0000 		call USB_USBTask
  60:../../LUFA-Libs/Arduino_LUFA_Bootloader/LUFA/Drivers/USB/Core/AVR8/Template/Template_Endpoint_RW.c **** 			if (BytesProcessed != NULL)
 2066               		.loc 3 60 0
 2067 005e A114      		cp r10,__zero_reg__
 2068 0060 B104      		cpc r11,__zero_reg__
 2069 0062 01F0      		breq .L132
  62:../../LUFA-Libs/Arduino_LUFA_Bootloader/LUFA/Drivers/USB/Core/AVR8/Template/Template_Endpoint_RW.c **** 				*BytesProcessed += BytesInTransfer;
 2070               		.loc 3 62 0
 2071 0064 F501      		movw r30,r10
 2072 0066 8081      		ld r24,Z
 2073 0068 9181      		ldd r25,Z+1
 2074 006a 8C0F      		add r24,r28
 2075 006c 9D1F      		adc r25,r29
 2076 006e 9183      		std Z+1,r25
 2077 0070 8083      		st Z,r24
  63:../../LUFA-Libs/Arduino_LUFA_Bootloader/LUFA/Drivers/USB/Core/AVR8/Template/Template_Endpoint_RW.c **** 				return ENDPOINT_RWSTREAM_IncompleteTransfer;
 2078               		.loc 3 63 0
 2079 0072 A5E0      		ldi r26,lo8(5)
 2080 0074 DA2E      		mov r13,r26
 2081 0076 00C0      		rjmp .L128
 2082               	.L132:
  66:../../LUFA-Libs/Arduino_LUFA_Bootloader/LUFA/Drivers/USB/Core/AVR8/Template/Template_Endpoint_RW.c **** 			if ((ErrorCode = Endpoint_WaitUntilReady()))
 2083               		.loc 3 66 0
 2084 0078 0E94 0000 		call Endpoint_WaitUntilReady
 2085               	.LVL202:
 2086 007c 8823      		tst r24
 2087 007e 01F0      		breq .L136
 2088 0080 00C0      		rjmp .L137
 2089               	.LVL203:
 2090               	.L131:
 2091               	.LBB328:
 2092               	.LBB329:
 612:../../LUFA-Libs/Arduino_LUFA_Bootloader/LUFA/Drivers/USB/Core/AVR8/../AVR8/../AVR8/Endpoint_AVR8.h **** 				return UEDATX;
 2093               		.loc 2 612 0
 2094 0082 6091 F100 		lds r22,241
 2095               	.LBE329:
 2096               	.LBE328:
  71:../../LUFA-Libs/Arduino_LUFA_Bootloader/LUFA/Drivers/USB/Core/AVR8/Template/Template_Endpoint_RW.c **** 			TEMPLATE_TRANSFER_BYTE(DataStream);
 2097               		.loc 3 71 0
 2098 0086 C801      		movw r24,r16
 2099 0088 0E94 0000 		call __eeupd_byte_m32u4
  72:../../LUFA-Libs/Arduino_LUFA_Bootloader/LUFA/Drivers/USB/Core/AVR8/Template/Template_Endpoint_RW.c **** 			TEMPLATE_BUFFER_MOVE(DataStream, 1);
 2100               		.loc 3 72 0
 2101 008c 0150      		subi r16,lo8(-(-1))
 2102 008e 1040      		sbci r17,hi8(-(-1))
 2103               	.LVL204:
  73:../../LUFA-Libs/Arduino_LUFA_Bootloader/LUFA/Drivers/USB/Core/AVR8/Template/Template_Endpoint_RW.c **** 			Length--;
 2104               		.loc 3 73 0
 2105 0090 0894      		sec
 2106 0092 E108      		sbc r14,__zero_reg__
 2107 0094 F108      		sbc r15,__zero_reg__
 2108               	.LVL205:
  74:../../LUFA-Libs/Arduino_LUFA_Bootloader/LUFA/Drivers/USB/Core/AVR8/Template/Template_Endpoint_RW.c **** 			BytesInTransfer++;
 2109               		.loc 3 74 0
 2110 0096 2196      		adiw r28,1
 2111               	.LVL206:
 2112               	.L136:
  50:../../LUFA-Libs/Arduino_LUFA_Bootloader/LUFA/Drivers/USB/Core/AVR8/Template/Template_Endpoint_RW.c **** 	while (Length)
 2113               		.loc 3 50 0 discriminator 1
 2114 0098 E114      		cp r14,__zero_reg__
 2115 009a F104      		cpc r15,__zero_reg__
 2116 009c 01F4      		brne .L134
 2117 009e 00C0      		rjmp .L128
 2118               	.LVL207:
 2119               	.L137:
  66:../../LUFA-Libs/Arduino_LUFA_Bootloader/LUFA/Drivers/USB/Core/AVR8/Template/Template_Endpoint_RW.c **** 			if ((ErrorCode = Endpoint_WaitUntilReady()))
 2120               		.loc 3 66 0
 2121 00a0 D82E      		mov r13,r24
 2122               	.LVL208:
 2123               	.L128:
 2124               		.loc 3 79 0
 2125 00a2 8D2D      		mov r24,r13
 2126               	/* epilogue start */
 2127 00a4 DF91      		pop r29
 2128 00a6 CF91      		pop r28
 2129 00a8 1F91      		pop r17
 2130 00aa 0F91      		pop r16
 2131 00ac FF90      		pop r15
 2132 00ae EF90      		pop r14
 2133               	.LVL209:
 2134 00b0 DF90      		pop r13
 2135 00b2 BF90      		pop r11
 2136 00b4 AF90      		pop r10
 2137               	.LVL210:
 2138 00b6 0895      		ret
 2139               		.cfi_endproc
 2140               	.LFE92:
 2142               		.section	.text.Endpoint_Write_Control_Stream_LE,"ax",@progbits
 2143               	.global	Endpoint_Write_Control_Stream_LE
 2145               	Endpoint_Write_Control_Stream_LE:
 2146               	.LFB93:
 2147               		.file 4 "../../LUFA-Libs/Arduino_LUFA_Bootloader/LUFA/Drivers/USB/Core/AVR8/Template/Template_Endp
   1:../../LUFA-Libs/Arduino_LUFA_Bootloader/LUFA/Drivers/USB/Core/AVR8/Template/Template_Endpoint_Control_W.c **** /*
   2:../../LUFA-Libs/Arduino_LUFA_Bootloader/LUFA/Drivers/USB/Core/AVR8/Template/Template_Endpoint_Control_W.c ****              LUFA Library
   3:../../LUFA-Libs/Arduino_LUFA_Bootloader/LUFA/Drivers/USB/Core/AVR8/Template/Template_Endpoint_Control_W.c ****      Copyright (C) Dean Camera, 2011.
   4:../../LUFA-Libs/Arduino_LUFA_Bootloader/LUFA/Drivers/USB/Core/AVR8/Template/Template_Endpoint_Control_W.c **** 
   5:../../LUFA-Libs/Arduino_LUFA_Bootloader/LUFA/Drivers/USB/Core/AVR8/Template/Template_Endpoint_Control_W.c ****   dean [at] fourwalledcubicle [dot] com
   6:../../LUFA-Libs/Arduino_LUFA_Bootloader/LUFA/Drivers/USB/Core/AVR8/Template/Template_Endpoint_Control_W.c ****            www.lufa-lib.org
   7:../../LUFA-Libs/Arduino_LUFA_Bootloader/LUFA/Drivers/USB/Core/AVR8/Template/Template_Endpoint_Control_W.c **** */
   8:../../LUFA-Libs/Arduino_LUFA_Bootloader/LUFA/Drivers/USB/Core/AVR8/Template/Template_Endpoint_Control_W.c **** 
   9:../../LUFA-Libs/Arduino_LUFA_Bootloader/LUFA/Drivers/USB/Core/AVR8/Template/Template_Endpoint_Control_W.c **** /*
  10:../../LUFA-Libs/Arduino_LUFA_Bootloader/LUFA/Drivers/USB/Core/AVR8/Template/Template_Endpoint_Control_W.c ****   Copyright 2011  Dean Camera (dean [at] fourwalledcubicle [dot] com)
  11:../../LUFA-Libs/Arduino_LUFA_Bootloader/LUFA/Drivers/USB/Core/AVR8/Template/Template_Endpoint_Control_W.c **** 
  12:../../LUFA-Libs/Arduino_LUFA_Bootloader/LUFA/Drivers/USB/Core/AVR8/Template/Template_Endpoint_Control_W.c ****   Permission to use, copy, modify, distribute, and sell this
  13:../../LUFA-Libs/Arduino_LUFA_Bootloader/LUFA/Drivers/USB/Core/AVR8/Template/Template_Endpoint_Control_W.c ****   software and its documentation for any purpose is hereby granted
  14:../../LUFA-Libs/Arduino_LUFA_Bootloader/LUFA/Drivers/USB/Core/AVR8/Template/Template_Endpoint_Control_W.c ****   without fee, provided that the above copyright notice appear in
  15:../../LUFA-Libs/Arduino_LUFA_Bootloader/LUFA/Drivers/USB/Core/AVR8/Template/Template_Endpoint_Control_W.c ****   all copies and that both that the copyright notice and this
  16:../../LUFA-Libs/Arduino_LUFA_Bootloader/LUFA/Drivers/USB/Core/AVR8/Template/Template_Endpoint_Control_W.c ****   permission notice and warranty disclaimer appear in supporting
  17:../../LUFA-Libs/Arduino_LUFA_Bootloader/LUFA/Drivers/USB/Core/AVR8/Template/Template_Endpoint_Control_W.c ****   documentation, and that the name of the author not be used in
  18:../../LUFA-Libs/Arduino_LUFA_Bootloader/LUFA/Drivers/USB/Core/AVR8/Template/Template_Endpoint_Control_W.c ****   advertising or publicity pertaining to distribution of the
  19:../../LUFA-Libs/Arduino_LUFA_Bootloader/LUFA/Drivers/USB/Core/AVR8/Template/Template_Endpoint_Control_W.c ****   software without specific, written prior permission.
  20:../../LUFA-Libs/Arduino_LUFA_Bootloader/LUFA/Drivers/USB/Core/AVR8/Template/Template_Endpoint_Control_W.c **** 
  21:../../LUFA-Libs/Arduino_LUFA_Bootloader/LUFA/Drivers/USB/Core/AVR8/Template/Template_Endpoint_Control_W.c ****   The author disclaim all warranties with regard to this
  22:../../LUFA-Libs/Arduino_LUFA_Bootloader/LUFA/Drivers/USB/Core/AVR8/Template/Template_Endpoint_Control_W.c ****   software, including all implied warranties of merchantability
  23:../../LUFA-Libs/Arduino_LUFA_Bootloader/LUFA/Drivers/USB/Core/AVR8/Template/Template_Endpoint_Control_W.c ****   and fitness.  In no event shall the author be liable for any
  24:../../LUFA-Libs/Arduino_LUFA_Bootloader/LUFA/Drivers/USB/Core/AVR8/Template/Template_Endpoint_Control_W.c ****   special, indirect or consequential damages or any damages
  25:../../LUFA-Libs/Arduino_LUFA_Bootloader/LUFA/Drivers/USB/Core/AVR8/Template/Template_Endpoint_Control_W.c ****   whatsoever resulting from loss of use, data or profits, whether
  26:../../LUFA-Libs/Arduino_LUFA_Bootloader/LUFA/Drivers/USB/Core/AVR8/Template/Template_Endpoint_Control_W.c ****   in an action of contract, negligence or other tortious action,
  27:../../LUFA-Libs/Arduino_LUFA_Bootloader/LUFA/Drivers/USB/Core/AVR8/Template/Template_Endpoint_Control_W.c ****   arising out of or in connection with the use or performance of
  28:../../LUFA-Libs/Arduino_LUFA_Bootloader/LUFA/Drivers/USB/Core/AVR8/Template/Template_Endpoint_Control_W.c ****   this software.
  29:../../LUFA-Libs/Arduino_LUFA_Bootloader/LUFA/Drivers/USB/Core/AVR8/Template/Template_Endpoint_Control_W.c **** */
  30:../../LUFA-Libs/Arduino_LUFA_Bootloader/LUFA/Drivers/USB/Core/AVR8/Template/Template_Endpoint_Control_W.c **** 
  31:../../LUFA-Libs/Arduino_LUFA_Bootloader/LUFA/Drivers/USB/Core/AVR8/Template/Template_Endpoint_Control_W.c **** #if defined(TEMPLATE_FUNC_NAME)
  32:../../LUFA-Libs/Arduino_LUFA_Bootloader/LUFA/Drivers/USB/Core/AVR8/Template/Template_Endpoint_Control_W.c **** 
  33:../../LUFA-Libs/Arduino_LUFA_Bootloader/LUFA/Drivers/USB/Core/AVR8/Template/Template_Endpoint_Control_W.c **** uint8_t TEMPLATE_FUNC_NAME (const void* const Buffer,
  34:../../LUFA-Libs/Arduino_LUFA_Bootloader/LUFA/Drivers/USB/Core/AVR8/Template/Template_Endpoint_Control_W.c ****                             uint16_t Length)
  35:../../LUFA-Libs/Arduino_LUFA_Bootloader/LUFA/Drivers/USB/Core/AVR8/Template/Template_Endpoint_Control_W.c **** {
 2148               		.loc 4 35 0
 2149               		.cfi_startproc
 2150               	.LVL211:
 2151               	/* prologue: function */
 2152               	/* frame size = 0 */
 2153               	/* stack size = 0 */
 2154               	.L__stack_usage = 0
  36:../../LUFA-Libs/Arduino_LUFA_Bootloader/LUFA/Drivers/USB/Core/AVR8/Template/Template_Endpoint_Control_W.c **** 	uint8_t* DataStream     = ((uint8_t*)Buffer + TEMPLATE_BUFFER_OFFSET(Length));
  37:../../LUFA-Libs/Arduino_LUFA_Bootloader/LUFA/Drivers/USB/Core/AVR8/Template/Template_Endpoint_Control_W.c **** 	bool     LastPacketFull = false;
  38:../../LUFA-Libs/Arduino_LUFA_Bootloader/LUFA/Drivers/USB/Core/AVR8/Template/Template_Endpoint_Control_W.c **** 
  39:../../LUFA-Libs/Arduino_LUFA_Bootloader/LUFA/Drivers/USB/Core/AVR8/Template/Template_Endpoint_Control_W.c **** 	if (Length > USB_ControlRequest.wLength)
 2155               		.loc 4 39 0
 2156 0000 4091 0000 		lds r20,USB_ControlRequest+6
 2157 0004 5091 0000 		lds r21,USB_ControlRequest+6+1
 2158 0008 4617      		cp r20,r22
 2159 000a 5707      		cpc r21,r23
 2160 000c 00F4      		brsh .L139
 2161 000e BA01      		movw r22,r20
 2162               	.LVL212:
 2163               	.L141:
 2164               		.loc 4 39 0 is_stmt 0 discriminator 1
 2165 0010 FC01      		movw r30,r24
 2166 0012 40E0      		ldi r20,lo8(0)
 2167 0014 00C0      		rjmp .L159
 2168               	.LVL213:
 2169               	.L139:
  40:../../LUFA-Libs/Arduino_LUFA_Bootloader/LUFA/Drivers/USB/Core/AVR8/Template/Template_Endpoint_Control_W.c **** 	  Length = USB_ControlRequest.wLength;
  41:../../LUFA-Libs/Arduino_LUFA_Bootloader/LUFA/Drivers/USB/Core/AVR8/Template/Template_Endpoint_Control_W.c **** 	else if (!(Length))
 2170               		.loc 4 41 0 is_stmt 1
 2171 0016 6115      		cp r22,__zero_reg__
 2172 0018 7105      		cpc r23,__zero_reg__
 2173 001a 01F4      		brne .L141
 2174               	.LBB330:
 2175               	.LBB331:
 516:../../LUFA-Libs/Arduino_LUFA_Bootloader/LUFA/Drivers/USB/Core/AVR8/../AVR8/../AVR8/Endpoint_AVR8.h **** 					UEINTX &= ~((1 << TXINI) | (1 << FIFOCON));
 2176               		.loc 2 516 0
 2177 001c 4091 E800 		lds r20,232
 2178 0020 4E77      		andi r20,lo8(126)
 2179 0022 4093 E800 		sts 232,r20
 2180 0026 00C0      		rjmp .L141
 2181               	.LVL214:
 2182               	.L149:
 2183               	.LBE331:
 2184               	.LBE330:
 2185               	.LBB332:
  42:../../LUFA-Libs/Arduino_LUFA_Bootloader/LUFA/Drivers/USB/Core/AVR8/Template/Template_Endpoint_Control_W.c **** 	  Endpoint_ClearIN();
  43:../../LUFA-Libs/Arduino_LUFA_Bootloader/LUFA/Drivers/USB/Core/AVR8/Template/Template_Endpoint_Control_W.c **** 
  44:../../LUFA-Libs/Arduino_LUFA_Bootloader/LUFA/Drivers/USB/Core/AVR8/Template/Template_Endpoint_Control_W.c **** 	while (Length || LastPacketFull)
  45:../../LUFA-Libs/Arduino_LUFA_Bootloader/LUFA/Drivers/USB/Core/AVR8/Template/Template_Endpoint_Control_W.c **** 	{
  46:../../LUFA-Libs/Arduino_LUFA_Bootloader/LUFA/Drivers/USB/Core/AVR8/Template/Template_Endpoint_Control_W.c **** 		uint8_t USB_DeviceState_LCL = USB_DeviceState;
 2186               		.loc 4 46 0
 2187 0028 8EB3      		in r24,62-32
 2188               	.LVL215:
  47:../../LUFA-Libs/Arduino_LUFA_Bootloader/LUFA/Drivers/USB/Core/AVR8/Template/Template_Endpoint_Control_W.c **** 
  48:../../LUFA-Libs/Arduino_LUFA_Bootloader/LUFA/Drivers/USB/Core/AVR8/Template/Template_Endpoint_Control_W.c **** 		if (USB_DeviceState_LCL == DEVICE_STATE_Unattached)
 2189               		.loc 4 48 0
 2190 002a 8823      		tst r24
 2191 002c 01F4      		brne .+2
 2192 002e 00C0      		rjmp .L154
  49:../../LUFA-Libs/Arduino_LUFA_Bootloader/LUFA/Drivers/USB/Core/AVR8/Template/Template_Endpoint_Control_W.c **** 		  return ENDPOINT_RWCSTREAM_DeviceDisconnected;
  50:../../LUFA-Libs/Arduino_LUFA_Bootloader/LUFA/Drivers/USB/Core/AVR8/Template/Template_Endpoint_Control_W.c **** 		else if (USB_DeviceState_LCL == DEVICE_STATE_Suspended)
 2193               		.loc 4 50 0
 2194 0030 8530      		cpi r24,lo8(5)
 2195 0032 01F0      		breq .L152
 2196               	.LBB333:
 2197               	.LBB334:
 491:../../LUFA-Libs/Arduino_LUFA_Bootloader/LUFA/Drivers/USB/Core/AVR8/../AVR8/../AVR8/Endpoint_AVR8.h **** 				return ((UEINTX & (1 << RXSTPI)) ? true : false);
 2198               		.loc 2 491 0
 2199 0034 8091 E800 		lds r24,232
 2200               	.LVL216:
 2201               	.LBE334:
 2202               	.LBE333:
  51:../../LUFA-Libs/Arduino_LUFA_Bootloader/LUFA/Drivers/USB/Core/AVR8/Template/Template_Endpoint_Control_W.c **** 		  return ENDPOINT_RWCSTREAM_BusSuspended;
  52:../../LUFA-Libs/Arduino_LUFA_Bootloader/LUFA/Drivers/USB/Core/AVR8/Template/Template_Endpoint_Control_W.c **** 		else if (Endpoint_IsSETUPReceived())
 2203               		.loc 4 52 0
 2204 0038 83FD      		sbrc r24,3
 2205 003a 00C0      		rjmp .L153
 2206               	.LBB335:
 2207               	.LBB336:
 479:../../LUFA-Libs/Arduino_LUFA_Bootloader/LUFA/Drivers/USB/Core/AVR8/../AVR8/../AVR8/Endpoint_AVR8.h **** 				return ((UEINTX & (1 << RXOUTI)) ? true : false);
 2208               		.loc 2 479 0
 2209 003c 8091 E800 		lds r24,232
 2210               	.LBE336:
 2211               	.LBE335:
  53:../../LUFA-Libs/Arduino_LUFA_Bootloader/LUFA/Drivers/USB/Core/AVR8/Template/Template_Endpoint_Control_W.c **** 		  return ENDPOINT_RWCSTREAM_HostAborted;
  54:../../LUFA-Libs/Arduino_LUFA_Bootloader/LUFA/Drivers/USB/Core/AVR8/Template/Template_Endpoint_Control_W.c **** 		else if (Endpoint_IsOUTReceived())
 2212               		.loc 4 54 0
 2213 0040 82FD      		sbrc r24,2
 2214 0042 00C0      		rjmp .L157
 2215               	.LBB337:
 2216               	.LBB338:
 467:../../LUFA-Libs/Arduino_LUFA_Bootloader/LUFA/Drivers/USB/Core/AVR8/../AVR8/../AVR8/Endpoint_AVR8.h **** 				return ((UEINTX & (1 << TXINI)) ? true : false);
 2217               		.loc 2 467 0
 2218 0044 8091 E800 		lds r24,232
 2219               	.LBE338:
 2220               	.LBE337:
  55:../../LUFA-Libs/Arduino_LUFA_Bootloader/LUFA/Drivers/USB/Core/AVR8/Template/Template_Endpoint_Control_W.c **** 		  break;
  56:../../LUFA-Libs/Arduino_LUFA_Bootloader/LUFA/Drivers/USB/Core/AVR8/Template/Template_Endpoint_Control_W.c **** 
  57:../../LUFA-Libs/Arduino_LUFA_Bootloader/LUFA/Drivers/USB/Core/AVR8/Template/Template_Endpoint_Control_W.c **** 		if (Endpoint_IsINReady())
 2221               		.loc 4 57 0
 2222 0048 80FF      		sbrs r24,0
 2223 004a 00C0      		rjmp .L159
 2224               	.LBB339:
 2225               	.LBB340:
 2226               	.LBB341:
 295:../../LUFA-Libs/Arduino_LUFA_Bootloader/LUFA/Drivers/USB/Core/AVR8/../AVR8/../AVR8/Endpoint_AVR8.h **** 					return (((uint16_t)UEBCHX << 8) | UEBCLX);
 2227               		.loc 2 295 0
 2228 004c 9091 F300 		lds r25,243
 2229 0050 8091 F200 		lds r24,242
 2230 0054 392F      		mov r19,r25
 2231 0056 20E0      		ldi r18,lo8(0)
 2232 0058 90E0      		ldi r25,lo8(0)
 2233 005a 822B      		or r24,r18
 2234 005c 932B      		or r25,r19
 2235               	.LBE341:
 2236               	.LBE340:
  58:../../LUFA-Libs/Arduino_LUFA_Bootloader/LUFA/Drivers/USB/Core/AVR8/Template/Template_Endpoint_Control_W.c **** 		{
  59:../../LUFA-Libs/Arduino_LUFA_Bootloader/LUFA/Drivers/USB/Core/AVR8/Template/Template_Endpoint_Control_W.c **** 			uint16_t BytesInEndpoint = Endpoint_BytesInEndpoint();
  60:../../LUFA-Libs/Arduino_LUFA_Bootloader/LUFA/Drivers/USB/Core/AVR8/Template/Template_Endpoint_Control_W.c **** 
  61:../../LUFA-Libs/Arduino_LUFA_Bootloader/LUFA/Drivers/USB/Core/AVR8/Template/Template_Endpoint_Control_W.c **** 			while (Length && (BytesInEndpoint < USB_Device_ControlEndpointSize))
 2237               		.loc 4 61 0
 2238 005e 00C0      		rjmp .L145
 2239               	.LVL217:
 2240               	.L147:
  62:../../LUFA-Libs/Arduino_LUFA_Bootloader/LUFA/Drivers/USB/Core/AVR8/Template/Template_Endpoint_Control_W.c **** 			{
  63:../../LUFA-Libs/Arduino_LUFA_Bootloader/LUFA/Drivers/USB/Core/AVR8/Template/Template_Endpoint_Control_W.c **** 				TEMPLATE_TRANSFER_BYTE(DataStream);
 2241               		.loc 4 63 0
 2242 0060 4191      		ld r20,Z+
 2243               	.LVL218:
 2244               	.LBB342:
 2245               	.LBB343:
 624:../../LUFA-Libs/Arduino_LUFA_Bootloader/LUFA/Drivers/USB/Core/AVR8/../AVR8/../AVR8/Endpoint_AVR8.h **** 				UEDATX = Data;
 2246               		.loc 2 624 0
 2247 0062 4093 F100 		sts 241,r20
 2248               	.LVL219:
 2249               	.LBE343:
 2250               	.LBE342:
  64:../../LUFA-Libs/Arduino_LUFA_Bootloader/LUFA/Drivers/USB/Core/AVR8/Template/Template_Endpoint_Control_W.c **** 				TEMPLATE_BUFFER_MOVE(DataStream, 1);
  65:../../LUFA-Libs/Arduino_LUFA_Bootloader/LUFA/Drivers/USB/Core/AVR8/Template/Template_Endpoint_Control_W.c **** 				Length--;
 2251               		.loc 4 65 0
 2252 0066 6150      		subi r22,lo8(-(-1))
 2253 0068 7040      		sbci r23,hi8(-(-1))
 2254               	.LVL220:
  66:../../LUFA-Libs/Arduino_LUFA_Bootloader/LUFA/Drivers/USB/Core/AVR8/Template/Template_Endpoint_Control_W.c **** 				BytesInEndpoint++;
 2255               		.loc 4 66 0
 2256 006a 0196      		adiw r24,1
 2257               	.LVL221:
 2258               	.L145:
  61:../../LUFA-Libs/Arduino_LUFA_Bootloader/LUFA/Drivers/USB/Core/AVR8/Template/Template_Endpoint_Control_W.c **** 			while (Length && (BytesInEndpoint < USB_Device_ControlEndpointSize))
 2259               		.loc 4 61 0 discriminator 1
 2260 006c 6115      		cp r22,__zero_reg__
 2261 006e 7105      		cpc r23,__zero_reg__
 2262 0070 01F0      		breq .L146
  61:../../LUFA-Libs/Arduino_LUFA_Bootloader/LUFA/Drivers/USB/Core/AVR8/Template/Template_Endpoint_Control_W.c **** 			while (Length && (BytesInEndpoint < USB_Device_ControlEndpointSize))
 2263               		.loc 4 61 0 is_stmt 0 discriminator 2
 2264 0072 8830      		cpi r24,8
 2265 0074 9105      		cpc r25,__zero_reg__
 2266 0076 00F0      		brlo .L147
 2267               	.L146:
  67:../../LUFA-Libs/Arduino_LUFA_Bootloader/LUFA/Drivers/USB/Core/AVR8/Template/Template_Endpoint_Control_W.c **** 			}
  68:../../LUFA-Libs/Arduino_LUFA_Bootloader/LUFA/Drivers/USB/Core/AVR8/Template/Template_Endpoint_Control_W.c **** 
  69:../../LUFA-Libs/Arduino_LUFA_Bootloader/LUFA/Drivers/USB/Core/AVR8/Template/Template_Endpoint_Control_W.c **** 			LastPacketFull = (BytesInEndpoint == USB_Device_ControlEndpointSize);
 2268               		.loc 4 69 0 is_stmt 1
 2269 0078 41E0      		ldi r20,lo8(1)
 2270 007a 8830      		cpi r24,8
 2271 007c 9105      		cpc r25,__zero_reg__
 2272 007e 01F0      		breq .L148
 2273 0080 40E0      		ldi r20,lo8(0)
 2274               	.L148:
 2275               	.LVL222:
 2276               	.LBB344:
 2277               	.LBB345:
 516:../../LUFA-Libs/Arduino_LUFA_Bootloader/LUFA/Drivers/USB/Core/AVR8/../AVR8/../AVR8/Endpoint_AVR8.h **** 					UEINTX &= ~((1 << TXINI) | (1 << FIFOCON));
 2278               		.loc 2 516 0
 2279 0082 8091 E800 		lds r24,232
 2280               	.LVL223:
 2281 0086 8E77      		andi r24,lo8(126)
 2282 0088 8093 E800 		sts 232,r24
 2283               	.LVL224:
 2284               	.L159:
 2285               	.LBE345:
 2286               	.LBE344:
 2287               	.LBE339:
 2288               	.LBE332:
  44:../../LUFA-Libs/Arduino_LUFA_Bootloader/LUFA/Drivers/USB/Core/AVR8/Template/Template_Endpoint_Control_W.c **** 	while (Length || LastPacketFull)
 2289               		.loc 4 44 0 discriminator 1
 2290 008c 6115      		cp r22,__zero_reg__
 2291 008e 7105      		cpc r23,__zero_reg__
 2292 0090 01F4      		brne .L149
  44:../../LUFA-Libs/Arduino_LUFA_Bootloader/LUFA/Drivers/USB/Core/AVR8/Template/Template_Endpoint_Control_W.c **** 	while (Length || LastPacketFull)
 2293               		.loc 4 44 0 is_stmt 0 discriminator 2
 2294 0092 4423      		tst r20
 2295 0094 01F4      		brne .L149
 2296 0096 00C0      		rjmp .L157
 2297               	.L150:
 2298               	.LBB346:
  70:../../LUFA-Libs/Arduino_LUFA_Bootloader/LUFA/Drivers/USB/Core/AVR8/Template/Template_Endpoint_Control_W.c **** 			Endpoint_ClearIN();
  71:../../LUFA-Libs/Arduino_LUFA_Bootloader/LUFA/Drivers/USB/Core/AVR8/Template/Template_Endpoint_Control_W.c **** 		}
  72:../../LUFA-Libs/Arduino_LUFA_Bootloader/LUFA/Drivers/USB/Core/AVR8/Template/Template_Endpoint_Control_W.c **** 	}
  73:../../LUFA-Libs/Arduino_LUFA_Bootloader/LUFA/Drivers/USB/Core/AVR8/Template/Template_Endpoint_Control_W.c **** 
  74:../../LUFA-Libs/Arduino_LUFA_Bootloader/LUFA/Drivers/USB/Core/AVR8/Template/Template_Endpoint_Control_W.c **** 	while (!(Endpoint_IsOUTReceived()))
  75:../../LUFA-Libs/Arduino_LUFA_Bootloader/LUFA/Drivers/USB/Core/AVR8/Template/Template_Endpoint_Control_W.c **** 	{
  76:../../LUFA-Libs/Arduino_LUFA_Bootloader/LUFA/Drivers/USB/Core/AVR8/Template/Template_Endpoint_Control_W.c **** 		uint8_t USB_DeviceState_LCL = USB_DeviceState;
 2299               		.loc 4 76 0 is_stmt 1
 2300 0098 8EB3      		in r24,62-32
 2301               	.LVL225:
  77:../../LUFA-Libs/Arduino_LUFA_Bootloader/LUFA/Drivers/USB/Core/AVR8/Template/Template_Endpoint_Control_W.c **** 
  78:../../LUFA-Libs/Arduino_LUFA_Bootloader/LUFA/Drivers/USB/Core/AVR8/Template/Template_Endpoint_Control_W.c **** 		if (USB_DeviceState_LCL == DEVICE_STATE_Unattached)
 2302               		.loc 4 78 0
 2303 009a 8823      		tst r24
 2304 009c 01F0      		breq .L154
  79:../../LUFA-Libs/Arduino_LUFA_Bootloader/LUFA/Drivers/USB/Core/AVR8/Template/Template_Endpoint_Control_W.c **** 		  return ENDPOINT_RWCSTREAM_DeviceDisconnected;
  80:../../LUFA-Libs/Arduino_LUFA_Bootloader/LUFA/Drivers/USB/Core/AVR8/Template/Template_Endpoint_Control_W.c **** 		else if (USB_DeviceState_LCL == DEVICE_STATE_Suspended)
 2305               		.loc 4 80 0
 2306 009e 8530      		cpi r24,lo8(5)
 2307 00a0 01F0      		breq .L155
 2308               	.LVL226:
 2309               	.L157:
 2310               	.LBE346:
 2311               	.LBB347:
 2312               	.LBB348:
 479:../../LUFA-Libs/Arduino_LUFA_Bootloader/LUFA/Drivers/USB/Core/AVR8/../AVR8/../AVR8/Endpoint_AVR8.h **** 				return ((UEINTX & (1 << RXOUTI)) ? true : false);
 2313               		.loc 2 479 0 discriminator 1
 2314 00a2 8091 E800 		lds r24,232
 2315               	.LBE348:
 2316               	.LBE347:
  74:../../LUFA-Libs/Arduino_LUFA_Bootloader/LUFA/Drivers/USB/Core/AVR8/Template/Template_Endpoint_Control_W.c **** 	while (!(Endpoint_IsOUTReceived()))
 2317               		.loc 4 74 0 discriminator 1
 2318 00a6 82FF      		sbrs r24,2
 2319 00a8 00C0      		rjmp .L150
  81:../../LUFA-Libs/Arduino_LUFA_Bootloader/LUFA/Drivers/USB/Core/AVR8/Template/Template_Endpoint_Control_W.c **** 		  return ENDPOINT_RWCSTREAM_BusSuspended;
  82:../../LUFA-Libs/Arduino_LUFA_Bootloader/LUFA/Drivers/USB/Core/AVR8/Template/Template_Endpoint_Control_W.c **** 	}
  83:../../LUFA-Libs/Arduino_LUFA_Bootloader/LUFA/Drivers/USB/Core/AVR8/Template/Template_Endpoint_Control_W.c **** 
  84:../../LUFA-Libs/Arduino_LUFA_Bootloader/LUFA/Drivers/USB/Core/AVR8/Template/Template_Endpoint_Control_W.c **** 	return ENDPOINT_RWCSTREAM_NoError;
 2320               		.loc 4 84 0
 2321 00aa 80E0      		ldi r24,lo8(0)
 2322 00ac 0895      		ret
 2323               	.LVL227:
 2324               	.L152:
 2325               	.LBB349:
  51:../../LUFA-Libs/Arduino_LUFA_Bootloader/LUFA/Drivers/USB/Core/AVR8/Template/Template_Endpoint_Control_W.c **** 		  return ENDPOINT_RWCSTREAM_BusSuspended;
 2326               		.loc 4 51 0
 2327 00ae 83E0      		ldi r24,lo8(3)
 2328               	.LVL228:
 2329 00b0 0895      		ret
 2330               	.L153:
  53:../../LUFA-Libs/Arduino_LUFA_Bootloader/LUFA/Drivers/USB/Core/AVR8/Template/Template_Endpoint_Control_W.c **** 		  return ENDPOINT_RWCSTREAM_HostAborted;
 2331               		.loc 4 53 0
 2332 00b2 81E0      		ldi r24,lo8(1)
 2333 00b4 0895      		ret
 2334               	.L154:
 2335               	.LBE349:
 2336               	.LBB350:
  79:../../LUFA-Libs/Arduino_LUFA_Bootloader/LUFA/Drivers/USB/Core/AVR8/Template/Template_Endpoint_Control_W.c **** 		  return ENDPOINT_RWCSTREAM_DeviceDisconnected;
 2337               		.loc 4 79 0
 2338 00b6 82E0      		ldi r24,lo8(2)
 2339 00b8 0895      		ret
 2340               	.LVL229:
 2341               	.L155:
  81:../../LUFA-Libs/Arduino_LUFA_Bootloader/LUFA/Drivers/USB/Core/AVR8/Template/Template_Endpoint_Control_W.c **** 		  return ENDPOINT_RWCSTREAM_BusSuspended;
 2342               		.loc 4 81 0
 2343 00ba 83E0      		ldi r24,lo8(3)
 2344               	.LVL230:
 2345               	.LBE350:
  85:../../LUFA-Libs/Arduino_LUFA_Bootloader/LUFA/Drivers/USB/Core/AVR8/Template/Template_Endpoint_Control_W.c **** }
 2346               		.loc 4 85 0
 2347 00bc 0895      		ret
 2348               		.cfi_endproc
 2349               	.LFE93:
 2351               		.section	.text.Endpoint_Write_Control_Stream_BE,"ax",@progbits
 2352               	.global	Endpoint_Write_Control_Stream_BE
 2354               	Endpoint_Write_Control_Stream_BE:
 2355               	.LFB94:
  35:../../LUFA-Libs/Arduino_LUFA_Bootloader/LUFA/Drivers/USB/Core/AVR8/Template/Template_Endpoint_Control_W.c **** {
 2356               		.loc 4 35 0
 2357               		.cfi_startproc
 2358               	.LVL231:
 2359               	/* prologue: function */
 2360               	/* frame size = 0 */
 2361               	/* stack size = 0 */
 2362               	.L__stack_usage = 0
  36:../../LUFA-Libs/Arduino_LUFA_Bootloader/LUFA/Drivers/USB/Core/AVR8/Template/Template_Endpoint_Control_W.c **** 	uint8_t* DataStream     = ((uint8_t*)Buffer + TEMPLATE_BUFFER_OFFSET(Length));
 2363               		.loc 4 36 0
 2364 0000 FB01      		movw r30,r22
 2365 0002 3197      		sbiw r30,1
 2366 0004 E80F      		add r30,r24
 2367 0006 F91F      		adc r31,r25
 2368               	.LVL232:
  39:../../LUFA-Libs/Arduino_LUFA_Bootloader/LUFA/Drivers/USB/Core/AVR8/Template/Template_Endpoint_Control_W.c **** 	if (Length > USB_ControlRequest.wLength)
 2369               		.loc 4 39 0
 2370 0008 8091 0000 		lds r24,USB_ControlRequest+6
 2371 000c 9091 0000 		lds r25,USB_ControlRequest+6+1
 2372               	.LVL233:
 2373 0010 8617      		cp r24,r22
 2374 0012 9707      		cpc r25,r23
 2375 0014 00F4      		brsh .L161
 2376 0016 BC01      		movw r22,r24
 2377               	.LVL234:
 2378               	.L163:
  39:../../LUFA-Libs/Arduino_LUFA_Bootloader/LUFA/Drivers/USB/Core/AVR8/Template/Template_Endpoint_Control_W.c **** 	if (Length > USB_ControlRequest.wLength)
 2379               		.loc 4 39 0 is_stmt 0 discriminator 1
 2380 0018 40E0      		ldi r20,lo8(0)
 2381 001a 00C0      		rjmp .L181
 2382               	.LVL235:
 2383               	.L161:
  41:../../LUFA-Libs/Arduino_LUFA_Bootloader/LUFA/Drivers/USB/Core/AVR8/Template/Template_Endpoint_Control_W.c **** 	else if (!(Length))
 2384               		.loc 4 41 0 is_stmt 1
 2385 001c 6115      		cp r22,__zero_reg__
 2386 001e 7105      		cpc r23,__zero_reg__
 2387 0020 01F4      		brne .L163
 2388               	.LBB351:
 2389               	.LBB352:
 516:../../LUFA-Libs/Arduino_LUFA_Bootloader/LUFA/Drivers/USB/Core/AVR8/../AVR8/../AVR8/Endpoint_AVR8.h **** 					UEINTX &= ~((1 << TXINI) | (1 << FIFOCON));
 2390               		.loc 2 516 0
 2391 0022 8091 E800 		lds r24,232
 2392 0026 8E77      		andi r24,lo8(126)
 2393 0028 8093 E800 		sts 232,r24
 2394 002c 00C0      		rjmp .L163
 2395               	.LVL236:
 2396               	.L171:
 2397               	.LBE352:
 2398               	.LBE351:
 2399               	.LBB353:
  46:../../LUFA-Libs/Arduino_LUFA_Bootloader/LUFA/Drivers/USB/Core/AVR8/Template/Template_Endpoint_Control_W.c **** 		uint8_t USB_DeviceState_LCL = USB_DeviceState;
 2400               		.loc 4 46 0
 2401 002e 8EB3      		in r24,62-32
 2402               	.LVL237:
  48:../../LUFA-Libs/Arduino_LUFA_Bootloader/LUFA/Drivers/USB/Core/AVR8/Template/Template_Endpoint_Control_W.c **** 		if (USB_DeviceState_LCL == DEVICE_STATE_Unattached)
 2403               		.loc 4 48 0
 2404 0030 8823      		tst r24
 2405 0032 01F4      		brne .+2
 2406 0034 00C0      		rjmp .L176
  50:../../LUFA-Libs/Arduino_LUFA_Bootloader/LUFA/Drivers/USB/Core/AVR8/Template/Template_Endpoint_Control_W.c **** 		else if (USB_DeviceState_LCL == DEVICE_STATE_Suspended)
 2407               		.loc 4 50 0
 2408 0036 8530      		cpi r24,lo8(5)
 2409 0038 01F0      		breq .L174
 2410               	.LBB354:
 2411               	.LBB355:
 491:../../LUFA-Libs/Arduino_LUFA_Bootloader/LUFA/Drivers/USB/Core/AVR8/../AVR8/../AVR8/Endpoint_AVR8.h **** 				return ((UEINTX & (1 << RXSTPI)) ? true : false);
 2412               		.loc 2 491 0
 2413 003a 8091 E800 		lds r24,232
 2414               	.LVL238:
 2415               	.LBE355:
 2416               	.LBE354:
  52:../../LUFA-Libs/Arduino_LUFA_Bootloader/LUFA/Drivers/USB/Core/AVR8/Template/Template_Endpoint_Control_W.c **** 		else if (Endpoint_IsSETUPReceived())
 2417               		.loc 4 52 0
 2418 003e 83FD      		sbrc r24,3
 2419 0040 00C0      		rjmp .L175
 2420               	.LBB356:
 2421               	.LBB357:
 479:../../LUFA-Libs/Arduino_LUFA_Bootloader/LUFA/Drivers/USB/Core/AVR8/../AVR8/../AVR8/Endpoint_AVR8.h **** 				return ((UEINTX & (1 << RXOUTI)) ? true : false);
 2422               		.loc 2 479 0
 2423 0042 8091 E800 		lds r24,232
 2424               	.LBE357:
 2425               	.LBE356:
  54:../../LUFA-Libs/Arduino_LUFA_Bootloader/LUFA/Drivers/USB/Core/AVR8/Template/Template_Endpoint_Control_W.c **** 		else if (Endpoint_IsOUTReceived())
 2426               		.loc 4 54 0
 2427 0046 82FD      		sbrc r24,2
 2428 0048 00C0      		rjmp .L179
 2429               	.LBB358:
 2430               	.LBB359:
 467:../../LUFA-Libs/Arduino_LUFA_Bootloader/LUFA/Drivers/USB/Core/AVR8/../AVR8/../AVR8/Endpoint_AVR8.h **** 				return ((UEINTX & (1 << TXINI)) ? true : false);
 2431               		.loc 2 467 0
 2432 004a 8091 E800 		lds r24,232
 2433               	.LBE359:
 2434               	.LBE358:
  57:../../LUFA-Libs/Arduino_LUFA_Bootloader/LUFA/Drivers/USB/Core/AVR8/Template/Template_Endpoint_Control_W.c **** 		if (Endpoint_IsINReady())
 2435               		.loc 4 57 0
 2436 004e 80FF      		sbrs r24,0
 2437 0050 00C0      		rjmp .L181
 2438               	.LBB360:
 2439               	.LBB361:
 2440               	.LBB362:
 295:../../LUFA-Libs/Arduino_LUFA_Bootloader/LUFA/Drivers/USB/Core/AVR8/../AVR8/../AVR8/Endpoint_AVR8.h **** 					return (((uint16_t)UEBCHX << 8) | UEBCLX);
 2441               		.loc 2 295 0
 2442 0052 9091 F300 		lds r25,243
 2443 0056 8091 F200 		lds r24,242
 2444 005a 392F      		mov r19,r25
 2445 005c 20E0      		ldi r18,lo8(0)
 2446 005e 90E0      		ldi r25,lo8(0)
 2447 0060 822B      		or r24,r18
 2448 0062 932B      		or r25,r19
 2449               	.LBE362:
 2450               	.LBE361:
  61:../../LUFA-Libs/Arduino_LUFA_Bootloader/LUFA/Drivers/USB/Core/AVR8/Template/Template_Endpoint_Control_W.c **** 			while (Length && (BytesInEndpoint < USB_Device_ControlEndpointSize))
 2451               		.loc 4 61 0
 2452 0064 00C0      		rjmp .L167
 2453               	.LVL239:
 2454               	.L169:
  63:../../LUFA-Libs/Arduino_LUFA_Bootloader/LUFA/Drivers/USB/Core/AVR8/Template/Template_Endpoint_Control_W.c **** 				TEMPLATE_TRANSFER_BYTE(DataStream);
 2455               		.loc 4 63 0
 2456 0066 4081      		ld r20,Z
 2457               	.LVL240:
 2458               	.LBB363:
 2459               	.LBB364:
 624:../../LUFA-Libs/Arduino_LUFA_Bootloader/LUFA/Drivers/USB/Core/AVR8/../AVR8/../AVR8/Endpoint_AVR8.h **** 				UEDATX = Data;
 2460               		.loc 2 624 0
 2461 0068 4093 F100 		sts 241,r20
 2462               	.LBE364:
 2463               	.LBE363:
  64:../../LUFA-Libs/Arduino_LUFA_Bootloader/LUFA/Drivers/USB/Core/AVR8/Template/Template_Endpoint_Control_W.c **** 				TEMPLATE_BUFFER_MOVE(DataStream, 1);
 2464               		.loc 4 64 0
 2465 006c 3197      		sbiw r30,1
 2466               	.LVL241:
  65:../../LUFA-Libs/Arduino_LUFA_Bootloader/LUFA/Drivers/USB/Core/AVR8/Template/Template_Endpoint_Control_W.c **** 				Length--;
 2467               		.loc 4 65 0
 2468 006e 6150      		subi r22,lo8(-(-1))
 2469 0070 7040      		sbci r23,hi8(-(-1))
 2470               	.LVL242:
  66:../../LUFA-Libs/Arduino_LUFA_Bootloader/LUFA/Drivers/USB/Core/AVR8/Template/Template_Endpoint_Control_W.c **** 				BytesInEndpoint++;
 2471               		.loc 4 66 0
 2472 0072 0196      		adiw r24,1
 2473               	.LVL243:
 2474               	.L167:
  61:../../LUFA-Libs/Arduino_LUFA_Bootloader/LUFA/Drivers/USB/Core/AVR8/Template/Template_Endpoint_Control_W.c **** 			while (Length && (BytesInEndpoint < USB_Device_ControlEndpointSize))
 2475               		.loc 4 61 0 discriminator 1
 2476 0074 6115      		cp r22,__zero_reg__
 2477 0076 7105      		cpc r23,__zero_reg__
 2478 0078 01F0      		breq .L168
  61:../../LUFA-Libs/Arduino_LUFA_Bootloader/LUFA/Drivers/USB/Core/AVR8/Template/Template_Endpoint_Control_W.c **** 			while (Length && (BytesInEndpoint < USB_Device_ControlEndpointSize))
 2479               		.loc 4 61 0 is_stmt 0 discriminator 2
 2480 007a 8830      		cpi r24,8
 2481 007c 9105      		cpc r25,__zero_reg__
 2482 007e 00F0      		brlo .L169
 2483               	.L168:
  69:../../LUFA-Libs/Arduino_LUFA_Bootloader/LUFA/Drivers/USB/Core/AVR8/Template/Template_Endpoint_Control_W.c **** 			LastPacketFull = (BytesInEndpoint == USB_Device_ControlEndpointSize);
 2484               		.loc 4 69 0 is_stmt 1
 2485 0080 41E0      		ldi r20,lo8(1)
 2486 0082 8830      		cpi r24,8
 2487 0084 9105      		cpc r25,__zero_reg__
 2488 0086 01F0      		breq .L170
 2489 0088 40E0      		ldi r20,lo8(0)
 2490               	.L170:
 2491               	.LVL244:
 2492               	.LBB365:
 2493               	.LBB366:
 516:../../LUFA-Libs/Arduino_LUFA_Bootloader/LUFA/Drivers/USB/Core/AVR8/../AVR8/../AVR8/Endpoint_AVR8.h **** 					UEINTX &= ~((1 << TXINI) | (1 << FIFOCON));
 2494               		.loc 2 516 0
 2495 008a 8091 E800 		lds r24,232
 2496               	.LVL245:
 2497 008e 8E77      		andi r24,lo8(126)
 2498 0090 8093 E800 		sts 232,r24
 2499               	.LVL246:
 2500               	.L181:
 2501               	.LBE366:
 2502               	.LBE365:
 2503               	.LBE360:
 2504               	.LBE353:
  44:../../LUFA-Libs/Arduino_LUFA_Bootloader/LUFA/Drivers/USB/Core/AVR8/Template/Template_Endpoint_Control_W.c **** 	while (Length || LastPacketFull)
 2505               		.loc 4 44 0 discriminator 1
 2506 0094 6115      		cp r22,__zero_reg__
 2507 0096 7105      		cpc r23,__zero_reg__
 2508 0098 01F4      		brne .L171
  44:../../LUFA-Libs/Arduino_LUFA_Bootloader/LUFA/Drivers/USB/Core/AVR8/Template/Template_Endpoint_Control_W.c **** 	while (Length || LastPacketFull)
 2509               		.loc 4 44 0 is_stmt 0 discriminator 2
 2510 009a 4423      		tst r20
 2511 009c 01F4      		brne .L171
 2512 009e 00C0      		rjmp .L179
 2513               	.L172:
 2514               	.LBB367:
  76:../../LUFA-Libs/Arduino_LUFA_Bootloader/LUFA/Drivers/USB/Core/AVR8/Template/Template_Endpoint_Control_W.c **** 		uint8_t USB_DeviceState_LCL = USB_DeviceState;
 2515               		.loc 4 76 0 is_stmt 1
 2516 00a0 8EB3      		in r24,62-32
 2517               	.LVL247:
  78:../../LUFA-Libs/Arduino_LUFA_Bootloader/LUFA/Drivers/USB/Core/AVR8/Template/Template_Endpoint_Control_W.c **** 		if (USB_DeviceState_LCL == DEVICE_STATE_Unattached)
 2518               		.loc 4 78 0
 2519 00a2 8823      		tst r24
 2520 00a4 01F0      		breq .L176
  80:../../LUFA-Libs/Arduino_LUFA_Bootloader/LUFA/Drivers/USB/Core/AVR8/Template/Template_Endpoint_Control_W.c **** 		else if (USB_DeviceState_LCL == DEVICE_STATE_Suspended)
 2521               		.loc 4 80 0
 2522 00a6 8530      		cpi r24,lo8(5)
 2523 00a8 01F0      		breq .L177
 2524               	.LVL248:
 2525               	.L179:
 2526               	.LBE367:
 2527               	.LBB368:
 2528               	.LBB369:
 479:../../LUFA-Libs/Arduino_LUFA_Bootloader/LUFA/Drivers/USB/Core/AVR8/../AVR8/../AVR8/Endpoint_AVR8.h **** 				return ((UEINTX & (1 << RXOUTI)) ? true : false);
 2529               		.loc 2 479 0 discriminator 1
 2530 00aa 8091 E800 		lds r24,232
 2531               	.LBE369:
 2532               	.LBE368:
  74:../../LUFA-Libs/Arduino_LUFA_Bootloader/LUFA/Drivers/USB/Core/AVR8/Template/Template_Endpoint_Control_W.c **** 	while (!(Endpoint_IsOUTReceived()))
 2533               		.loc 4 74 0 discriminator 1
 2534 00ae 82FF      		sbrs r24,2
 2535 00b0 00C0      		rjmp .L172
  84:../../LUFA-Libs/Arduino_LUFA_Bootloader/LUFA/Drivers/USB/Core/AVR8/Template/Template_Endpoint_Control_W.c **** 	return ENDPOINT_RWCSTREAM_NoError;
 2536               		.loc 4 84 0
 2537 00b2 80E0      		ldi r24,lo8(0)
 2538 00b4 0895      		ret
 2539               	.LVL249:
 2540               	.L174:
 2541               	.LBB370:
  51:../../LUFA-Libs/Arduino_LUFA_Bootloader/LUFA/Drivers/USB/Core/AVR8/Template/Template_Endpoint_Control_W.c **** 		  return ENDPOINT_RWCSTREAM_BusSuspended;
 2542               		.loc 4 51 0
 2543 00b6 83E0      		ldi r24,lo8(3)
 2544               	.LVL250:
 2545 00b8 0895      		ret
 2546               	.L175:
  53:../../LUFA-Libs/Arduino_LUFA_Bootloader/LUFA/Drivers/USB/Core/AVR8/Template/Template_Endpoint_Control_W.c **** 		  return ENDPOINT_RWCSTREAM_HostAborted;
 2547               		.loc 4 53 0
 2548 00ba 81E0      		ldi r24,lo8(1)
 2549 00bc 0895      		ret
 2550               	.L176:
 2551               	.LBE370:
 2552               	.LBB371:
  79:../../LUFA-Libs/Arduino_LUFA_Bootloader/LUFA/Drivers/USB/Core/AVR8/Template/Template_Endpoint_Control_W.c **** 		  return ENDPOINT_RWCSTREAM_DeviceDisconnected;
 2553               		.loc 4 79 0
 2554 00be 82E0      		ldi r24,lo8(2)
 2555 00c0 0895      		ret
 2556               	.LVL251:
 2557               	.L177:
  81:../../LUFA-Libs/Arduino_LUFA_Bootloader/LUFA/Drivers/USB/Core/AVR8/Template/Template_Endpoint_Control_W.c **** 		  return ENDPOINT_RWCSTREAM_BusSuspended;
 2558               		.loc 4 81 0
 2559 00c2 83E0      		ldi r24,lo8(3)
 2560               	.LVL252:
 2561               	.LBE371:
 2562               		.loc 4 85 0
 2563 00c4 0895      		ret
 2564               		.cfi_endproc
 2565               	.LFE94:
 2567               		.section	.text.Endpoint_Read_Control_Stream_LE,"ax",@progbits
 2568               	.global	Endpoint_Read_Control_Stream_LE
 2570               	Endpoint_Read_Control_Stream_LE:
 2571               	.LFB95:
 2572               		.file 5 "../../LUFA-Libs/Arduino_LUFA_Bootloader/LUFA/Drivers/USB/Core/AVR8/Template/Template_Endp
   1:../../LUFA-Libs/Arduino_LUFA_Bootloader/LUFA/Drivers/USB/Core/AVR8/Template/Template_Endpoint_Control_R.c **** /*
   2:../../LUFA-Libs/Arduino_LUFA_Bootloader/LUFA/Drivers/USB/Core/AVR8/Template/Template_Endpoint_Control_R.c ****              LUFA Library
   3:../../LUFA-Libs/Arduino_LUFA_Bootloader/LUFA/Drivers/USB/Core/AVR8/Template/Template_Endpoint_Control_R.c ****      Copyright (C) Dean Camera, 2011.
   4:../../LUFA-Libs/Arduino_LUFA_Bootloader/LUFA/Drivers/USB/Core/AVR8/Template/Template_Endpoint_Control_R.c **** 
   5:../../LUFA-Libs/Arduino_LUFA_Bootloader/LUFA/Drivers/USB/Core/AVR8/Template/Template_Endpoint_Control_R.c ****   dean [at] fourwalledcubicle [dot] com
   6:../../LUFA-Libs/Arduino_LUFA_Bootloader/LUFA/Drivers/USB/Core/AVR8/Template/Template_Endpoint_Control_R.c ****            www.lufa-lib.org
   7:../../LUFA-Libs/Arduino_LUFA_Bootloader/LUFA/Drivers/USB/Core/AVR8/Template/Template_Endpoint_Control_R.c **** */
   8:../../LUFA-Libs/Arduino_LUFA_Bootloader/LUFA/Drivers/USB/Core/AVR8/Template/Template_Endpoint_Control_R.c **** 
   9:../../LUFA-Libs/Arduino_LUFA_Bootloader/LUFA/Drivers/USB/Core/AVR8/Template/Template_Endpoint_Control_R.c **** /*
  10:../../LUFA-Libs/Arduino_LUFA_Bootloader/LUFA/Drivers/USB/Core/AVR8/Template/Template_Endpoint_Control_R.c ****   Copyright 2011  Dean Camera (dean [at] fourwalledcubicle [dot] com)
  11:../../LUFA-Libs/Arduino_LUFA_Bootloader/LUFA/Drivers/USB/Core/AVR8/Template/Template_Endpoint_Control_R.c **** 
  12:../../LUFA-Libs/Arduino_LUFA_Bootloader/LUFA/Drivers/USB/Core/AVR8/Template/Template_Endpoint_Control_R.c ****   Permission to use, copy, modify, distribute, and sell this
  13:../../LUFA-Libs/Arduino_LUFA_Bootloader/LUFA/Drivers/USB/Core/AVR8/Template/Template_Endpoint_Control_R.c ****   software and its documentation for any purpose is hereby granted
  14:../../LUFA-Libs/Arduino_LUFA_Bootloader/LUFA/Drivers/USB/Core/AVR8/Template/Template_Endpoint_Control_R.c ****   without fee, provided that the above copyright notice appear in
  15:../../LUFA-Libs/Arduino_LUFA_Bootloader/LUFA/Drivers/USB/Core/AVR8/Template/Template_Endpoint_Control_R.c ****   all copies and that both that the copyright notice and this
  16:../../LUFA-Libs/Arduino_LUFA_Bootloader/LUFA/Drivers/USB/Core/AVR8/Template/Template_Endpoint_Control_R.c ****   permission notice and warranty disclaimer appear in supporting
  17:../../LUFA-Libs/Arduino_LUFA_Bootloader/LUFA/Drivers/USB/Core/AVR8/Template/Template_Endpoint_Control_R.c ****   documentation, and that the name of the author not be used in
  18:../../LUFA-Libs/Arduino_LUFA_Bootloader/LUFA/Drivers/USB/Core/AVR8/Template/Template_Endpoint_Control_R.c ****   advertising or publicity pertaining to distribution of the
  19:../../LUFA-Libs/Arduino_LUFA_Bootloader/LUFA/Drivers/USB/Core/AVR8/Template/Template_Endpoint_Control_R.c ****   software without specific, written prior permission.
  20:../../LUFA-Libs/Arduino_LUFA_Bootloader/LUFA/Drivers/USB/Core/AVR8/Template/Template_Endpoint_Control_R.c **** 
  21:../../LUFA-Libs/Arduino_LUFA_Bootloader/LUFA/Drivers/USB/Core/AVR8/Template/Template_Endpoint_Control_R.c ****   The author disclaim all warranties with regard to this
  22:../../LUFA-Libs/Arduino_LUFA_Bootloader/LUFA/Drivers/USB/Core/AVR8/Template/Template_Endpoint_Control_R.c ****   software, including all implied warranties of merchantability
  23:../../LUFA-Libs/Arduino_LUFA_Bootloader/LUFA/Drivers/USB/Core/AVR8/Template/Template_Endpoint_Control_R.c ****   and fitness.  In no event shall the author be liable for any
  24:../../LUFA-Libs/Arduino_LUFA_Bootloader/LUFA/Drivers/USB/Core/AVR8/Template/Template_Endpoint_Control_R.c ****   special, indirect or consequential damages or any damages
  25:../../LUFA-Libs/Arduino_LUFA_Bootloader/LUFA/Drivers/USB/Core/AVR8/Template/Template_Endpoint_Control_R.c ****   whatsoever resulting from loss of use, data or profits, whether
  26:../../LUFA-Libs/Arduino_LUFA_Bootloader/LUFA/Drivers/USB/Core/AVR8/Template/Template_Endpoint_Control_R.c ****   in an action of contract, negligence or other tortious action,
  27:../../LUFA-Libs/Arduino_LUFA_Bootloader/LUFA/Drivers/USB/Core/AVR8/Template/Template_Endpoint_Control_R.c ****   arising out of or in connection with the use or performance of
  28:../../LUFA-Libs/Arduino_LUFA_Bootloader/LUFA/Drivers/USB/Core/AVR8/Template/Template_Endpoint_Control_R.c ****   this software.
  29:../../LUFA-Libs/Arduino_LUFA_Bootloader/LUFA/Drivers/USB/Core/AVR8/Template/Template_Endpoint_Control_R.c **** */
  30:../../LUFA-Libs/Arduino_LUFA_Bootloader/LUFA/Drivers/USB/Core/AVR8/Template/Template_Endpoint_Control_R.c **** 
  31:../../LUFA-Libs/Arduino_LUFA_Bootloader/LUFA/Drivers/USB/Core/AVR8/Template/Template_Endpoint_Control_R.c **** #if defined(TEMPLATE_FUNC_NAME)
  32:../../LUFA-Libs/Arduino_LUFA_Bootloader/LUFA/Drivers/USB/Core/AVR8/Template/Template_Endpoint_Control_R.c **** 
  33:../../LUFA-Libs/Arduino_LUFA_Bootloader/LUFA/Drivers/USB/Core/AVR8/Template/Template_Endpoint_Control_R.c **** uint8_t TEMPLATE_FUNC_NAME (void* const Buffer,
  34:../../LUFA-Libs/Arduino_LUFA_Bootloader/LUFA/Drivers/USB/Core/AVR8/Template/Template_Endpoint_Control_R.c ****                             uint16_t Length)
  35:../../LUFA-Libs/Arduino_LUFA_Bootloader/LUFA/Drivers/USB/Core/AVR8/Template/Template_Endpoint_Control_R.c **** {
 2573               		.loc 5 35 0
 2574               		.cfi_startproc
 2575               	.LVL253:
 2576               	/* prologue: function */
 2577               	/* frame size = 0 */
 2578               	/* stack size = 0 */
 2579               	.L__stack_usage = 0
  36:../../LUFA-Libs/Arduino_LUFA_Bootloader/LUFA/Drivers/USB/Core/AVR8/Template/Template_Endpoint_Control_R.c **** 	uint8_t* DataStream = ((uint8_t*)Buffer + TEMPLATE_BUFFER_OFFSET(Length));
  37:../../LUFA-Libs/Arduino_LUFA_Bootloader/LUFA/Drivers/USB/Core/AVR8/Template/Template_Endpoint_Control_R.c **** 
  38:../../LUFA-Libs/Arduino_LUFA_Bootloader/LUFA/Drivers/USB/Core/AVR8/Template/Template_Endpoint_Control_R.c **** 	if (!(Length))
 2580               		.loc 5 38 0
 2581 0000 6115      		cp r22,__zero_reg__
 2582 0002 7105      		cpc r23,__zero_reg__
 2583 0004 01F4      		brne .L183
 2584               	.LBB372:
 2585               	.LBB373:
 531:../../LUFA-Libs/Arduino_LUFA_Bootloader/LUFA/Drivers/USB/Core/AVR8/../AVR8/../AVR8/Endpoint_AVR8.h **** 					UEINTX &= ~((1 << RXOUTI) | (1 << FIFOCON));
 2586               		.loc 2 531 0
 2587 0006 4091 E800 		lds r20,232
 2588 000a 4B77      		andi r20,lo8(123)
 2589 000c 4093 E800 		sts 232,r20
 2590               	.L183:
 2591               	.LBE373:
 2592               	.LBE372:
  35:../../LUFA-Libs/Arduino_LUFA_Bootloader/LUFA/Drivers/USB/Core/AVR8/Template/Template_Endpoint_Control_R.c **** {
 2593               		.loc 5 35 0 discriminator 1
 2594 0010 582F      		mov r21,r24
 2595 0012 492F      		mov r20,r25
 2596 0014 00C0      		rjmp .L184
 2597               	.LVL254:
 2598               	.L197:
 2599               	.LBB374:
  39:../../LUFA-Libs/Arduino_LUFA_Bootloader/LUFA/Drivers/USB/Core/AVR8/Template/Template_Endpoint_Control_R.c **** 	  Endpoint_ClearOUT();
  40:../../LUFA-Libs/Arduino_LUFA_Bootloader/LUFA/Drivers/USB/Core/AVR8/Template/Template_Endpoint_Control_R.c **** 
  41:../../LUFA-Libs/Arduino_LUFA_Bootloader/LUFA/Drivers/USB/Core/AVR8/Template/Template_Endpoint_Control_R.c **** 	while (Length)
  42:../../LUFA-Libs/Arduino_LUFA_Bootloader/LUFA/Drivers/USB/Core/AVR8/Template/Template_Endpoint_Control_R.c **** 	{
  43:../../LUFA-Libs/Arduino_LUFA_Bootloader/LUFA/Drivers/USB/Core/AVR8/Template/Template_Endpoint_Control_R.c **** 		uint8_t USB_DeviceState_LCL = USB_DeviceState;
 2600               		.loc 5 43 0
 2601 0016 8EB3      		in r24,62-32
 2602               	.LVL255:
  44:../../LUFA-Libs/Arduino_LUFA_Bootloader/LUFA/Drivers/USB/Core/AVR8/Template/Template_Endpoint_Control_R.c **** 
  45:../../LUFA-Libs/Arduino_LUFA_Bootloader/LUFA/Drivers/USB/Core/AVR8/Template/Template_Endpoint_Control_R.c **** 		if (USB_DeviceState_LCL == DEVICE_STATE_Unattached)
 2603               		.loc 5 45 0
 2604 0018 8823      		tst r24
 2605 001a 01F0      		breq .L195
  46:../../LUFA-Libs/Arduino_LUFA_Bootloader/LUFA/Drivers/USB/Core/AVR8/Template/Template_Endpoint_Control_R.c **** 		  return ENDPOINT_RWCSTREAM_DeviceDisconnected;
  47:../../LUFA-Libs/Arduino_LUFA_Bootloader/LUFA/Drivers/USB/Core/AVR8/Template/Template_Endpoint_Control_R.c **** 		else if (USB_DeviceState_LCL == DEVICE_STATE_Suspended)
 2606               		.loc 5 47 0
 2607 001c 8530      		cpi r24,lo8(5)
 2608 001e 01F0      		breq .L193
 2609               	.LBB375:
 2610               	.LBB376:
 491:../../LUFA-Libs/Arduino_LUFA_Bootloader/LUFA/Drivers/USB/Core/AVR8/../AVR8/../AVR8/Endpoint_AVR8.h **** 				return ((UEINTX & (1 << RXSTPI)) ? true : false);
 2611               		.loc 2 491 0
 2612 0020 8091 E800 		lds r24,232
 2613               	.LVL256:
 2614               	.LBE376:
 2615               	.LBE375:
  48:../../LUFA-Libs/Arduino_LUFA_Bootloader/LUFA/Drivers/USB/Core/AVR8/Template/Template_Endpoint_Control_R.c **** 		  return ENDPOINT_RWCSTREAM_BusSuspended;
  49:../../LUFA-Libs/Arduino_LUFA_Bootloader/LUFA/Drivers/USB/Core/AVR8/Template/Template_Endpoint_Control_R.c **** 		else if (Endpoint_IsSETUPReceived())
 2616               		.loc 5 49 0
 2617 0024 83FD      		sbrc r24,3
 2618 0026 00C0      		rjmp .L194
 2619               	.LBB377:
 2620               	.LBB378:
 479:../../LUFA-Libs/Arduino_LUFA_Bootloader/LUFA/Drivers/USB/Core/AVR8/../AVR8/../AVR8/Endpoint_AVR8.h **** 				return ((UEINTX & (1 << RXOUTI)) ? true : false);
 2621               		.loc 2 479 0
 2622 0028 8091 E800 		lds r24,232
 2623               	.LBE378:
 2624               	.LBE377:
  50:../../LUFA-Libs/Arduino_LUFA_Bootloader/LUFA/Drivers/USB/Core/AVR8/Template/Template_Endpoint_Control_R.c **** 		  return ENDPOINT_RWCSTREAM_HostAborted;
  51:../../LUFA-Libs/Arduino_LUFA_Bootloader/LUFA/Drivers/USB/Core/AVR8/Template/Template_Endpoint_Control_R.c **** 
  52:../../LUFA-Libs/Arduino_LUFA_Bootloader/LUFA/Drivers/USB/Core/AVR8/Template/Template_Endpoint_Control_R.c **** 		if (Endpoint_IsOUTReceived())
 2625               		.loc 5 52 0
 2626 002c 82FF      		sbrs r24,2
 2627 002e 00C0      		rjmp .L197
 2628 0030 E52F      		mov r30,r21
 2629 0032 F42F      		mov r31,r20
 2630 0034 00C0      		rjmp .L187
 2631               	.LVL257:
 2632               	.L189:
 2633               	.LBB379:
 2634               	.LBB380:
 612:../../LUFA-Libs/Arduino_LUFA_Bootloader/LUFA/Drivers/USB/Core/AVR8/../AVR8/../AVR8/Endpoint_AVR8.h **** 				return UEDATX;
 2635               		.loc 2 612 0
 2636 0036 8091 F100 		lds r24,241
 2637               	.LBE380:
 2638               	.LBE379:
  53:../../LUFA-Libs/Arduino_LUFA_Bootloader/LUFA/Drivers/USB/Core/AVR8/Template/Template_Endpoint_Control_R.c **** 		{
  54:../../LUFA-Libs/Arduino_LUFA_Bootloader/LUFA/Drivers/USB/Core/AVR8/Template/Template_Endpoint_Control_R.c **** 			while (Length && Endpoint_BytesInEndpoint())
  55:../../LUFA-Libs/Arduino_LUFA_Bootloader/LUFA/Drivers/USB/Core/AVR8/Template/Template_Endpoint_Control_R.c **** 			{
  56:../../LUFA-Libs/Arduino_LUFA_Bootloader/LUFA/Drivers/USB/Core/AVR8/Template/Template_Endpoint_Control_R.c **** 				TEMPLATE_TRANSFER_BYTE(DataStream);
 2639               		.loc 5 56 0
 2640 003a 8193      		st Z+,r24
  57:../../LUFA-Libs/Arduino_LUFA_Bootloader/LUFA/Drivers/USB/Core/AVR8/Template/Template_Endpoint_Control_R.c **** 				TEMPLATE_BUFFER_MOVE(DataStream, 1);
 2641               		.loc 5 57 0
 2642 003c 5E2F      		mov r21,r30
 2643 003e 4F2F      		mov r20,r31
 2644               	.LVL258:
  58:../../LUFA-Libs/Arduino_LUFA_Bootloader/LUFA/Drivers/USB/Core/AVR8/Template/Template_Endpoint_Control_R.c **** 				Length--;
 2645               		.loc 5 58 0
 2646 0040 6150      		subi r22,lo8(-(-1))
 2647 0042 7040      		sbci r23,hi8(-(-1))
 2648               	.LVL259:
  54:../../LUFA-Libs/Arduino_LUFA_Bootloader/LUFA/Drivers/USB/Core/AVR8/Template/Template_Endpoint_Control_R.c **** 			while (Length && Endpoint_BytesInEndpoint())
 2649               		.loc 5 54 0
 2650 0044 01F0      		breq .L188
 2651               	.LVL260:
 2652               	.L187:
 2653 0046 5E2F      		mov r21,r30
 2654 0048 4F2F      		mov r20,r31
 2655               	.LBB381:
 2656               	.LBB382:
 295:../../LUFA-Libs/Arduino_LUFA_Bootloader/LUFA/Drivers/USB/Core/AVR8/../AVR8/../AVR8/Endpoint_AVR8.h **** 					return (((uint16_t)UEBCHX << 8) | UEBCLX);
 2657               		.loc 2 295 0
 2658 004a 9091 F300 		lds r25,243
 2659 004e 8091 F200 		lds r24,242
 2660 0052 392F      		mov r19,r25
 2661 0054 20E0      		ldi r18,lo8(0)
 2662 0056 90E0      		ldi r25,lo8(0)
 2663 0058 822B      		or r24,r18
 2664 005a 932B      		or r25,r19
 2665               	.LBE382:
 2666               	.LBE381:
  54:../../LUFA-Libs/Arduino_LUFA_Bootloader/LUFA/Drivers/USB/Core/AVR8/Template/Template_Endpoint_Control_R.c **** 			while (Length && Endpoint_BytesInEndpoint())
 2667               		.loc 5 54 0
 2668 005c 0097      		sbiw r24,0
 2669 005e 01F4      		brne .L189
 2670               	.L188:
 2671               	.LBB383:
 2672               	.LBB384:
 531:../../LUFA-Libs/Arduino_LUFA_Bootloader/LUFA/Drivers/USB/Core/AVR8/../AVR8/../AVR8/Endpoint_AVR8.h **** 					UEINTX &= ~((1 << RXOUTI) | (1 << FIFOCON));
 2673               		.loc 2 531 0
 2674 0060 8091 E800 		lds r24,232
 2675 0064 8B77      		andi r24,lo8(123)
 2676 0066 8093 E800 		sts 232,r24
 2677               	.L184:
 2678               	.LVL261:
 2679               	.LBE384:
 2680               	.LBE383:
 2681               	.LBE374:
  41:../../LUFA-Libs/Arduino_LUFA_Bootloader/LUFA/Drivers/USB/Core/AVR8/Template/Template_Endpoint_Control_R.c **** 	while (Length)
 2682               		.loc 5 41 0 discriminator 1
 2683 006a 6115      		cp r22,__zero_reg__
 2684 006c 7105      		cpc r23,__zero_reg__
 2685 006e 01F4      		brne .L197
 2686 0070 00C0      		rjmp .L199
 2687               	.L191:
 2688               	.LBB385:
  59:../../LUFA-Libs/Arduino_LUFA_Bootloader/LUFA/Drivers/USB/Core/AVR8/Template/Template_Endpoint_Control_R.c **** 			}
  60:../../LUFA-Libs/Arduino_LUFA_Bootloader/LUFA/Drivers/USB/Core/AVR8/Template/Template_Endpoint_Control_R.c **** 
  61:../../LUFA-Libs/Arduino_LUFA_Bootloader/LUFA/Drivers/USB/Core/AVR8/Template/Template_Endpoint_Control_R.c **** 			Endpoint_ClearOUT();
  62:../../LUFA-Libs/Arduino_LUFA_Bootloader/LUFA/Drivers/USB/Core/AVR8/Template/Template_Endpoint_Control_R.c **** 		}
  63:../../LUFA-Libs/Arduino_LUFA_Bootloader/LUFA/Drivers/USB/Core/AVR8/Template/Template_Endpoint_Control_R.c **** 	}
  64:../../LUFA-Libs/Arduino_LUFA_Bootloader/LUFA/Drivers/USB/Core/AVR8/Template/Template_Endpoint_Control_R.c **** 
  65:../../LUFA-Libs/Arduino_LUFA_Bootloader/LUFA/Drivers/USB/Core/AVR8/Template/Template_Endpoint_Control_R.c **** 	while (!(Endpoint_IsINReady()))
  66:../../LUFA-Libs/Arduino_LUFA_Bootloader/LUFA/Drivers/USB/Core/AVR8/Template/Template_Endpoint_Control_R.c **** 	{
  67:../../LUFA-Libs/Arduino_LUFA_Bootloader/LUFA/Drivers/USB/Core/AVR8/Template/Template_Endpoint_Control_R.c **** 		uint8_t USB_DeviceState_LCL = USB_DeviceState;
 2689               		.loc 5 67 0
 2690 0072 8EB3      		in r24,62-32
 2691               	.LVL262:
  68:../../LUFA-Libs/Arduino_LUFA_Bootloader/LUFA/Drivers/USB/Core/AVR8/Template/Template_Endpoint_Control_R.c **** 
  69:../../LUFA-Libs/Arduino_LUFA_Bootloader/LUFA/Drivers/USB/Core/AVR8/Template/Template_Endpoint_Control_R.c **** 		if (USB_DeviceState_LCL == DEVICE_STATE_Unattached)
 2692               		.loc 5 69 0
 2693 0074 8823      		tst r24
 2694 0076 01F0      		breq .L195
  70:../../LUFA-Libs/Arduino_LUFA_Bootloader/LUFA/Drivers/USB/Core/AVR8/Template/Template_Endpoint_Control_R.c **** 		  return ENDPOINT_RWCSTREAM_DeviceDisconnected;
  71:../../LUFA-Libs/Arduino_LUFA_Bootloader/LUFA/Drivers/USB/Core/AVR8/Template/Template_Endpoint_Control_R.c **** 		else if (USB_DeviceState_LCL == DEVICE_STATE_Suspended)
 2695               		.loc 5 71 0
 2696 0078 8530      		cpi r24,lo8(5)
 2697 007a 01F0      		breq .L196
 2698               	.LVL263:
 2699               	.L199:
 2700               	.LBE385:
 2701               	.LBB386:
 2702               	.LBB387:
 467:../../LUFA-Libs/Arduino_LUFA_Bootloader/LUFA/Drivers/USB/Core/AVR8/../AVR8/../AVR8/Endpoint_AVR8.h **** 				return ((UEINTX & (1 << TXINI)) ? true : false);
 2703               		.loc 2 467 0 discriminator 1
 2704 007c 8091 E800 		lds r24,232
 2705               	.LBE387:
 2706               	.LBE386:
  65:../../LUFA-Libs/Arduino_LUFA_Bootloader/LUFA/Drivers/USB/Core/AVR8/Template/Template_Endpoint_Control_R.c **** 	while (!(Endpoint_IsINReady()))
 2707               		.loc 5 65 0 discriminator 1
 2708 0080 80FF      		sbrs r24,0
 2709 0082 00C0      		rjmp .L191
  72:../../LUFA-Libs/Arduino_LUFA_Bootloader/LUFA/Drivers/USB/Core/AVR8/Template/Template_Endpoint_Control_R.c **** 		  return ENDPOINT_RWCSTREAM_BusSuspended;
  73:../../LUFA-Libs/Arduino_LUFA_Bootloader/LUFA/Drivers/USB/Core/AVR8/Template/Template_Endpoint_Control_R.c **** 	}
  74:../../LUFA-Libs/Arduino_LUFA_Bootloader/LUFA/Drivers/USB/Core/AVR8/Template/Template_Endpoint_Control_R.c **** 
  75:../../LUFA-Libs/Arduino_LUFA_Bootloader/LUFA/Drivers/USB/Core/AVR8/Template/Template_Endpoint_Control_R.c **** 	return ENDPOINT_RWCSTREAM_NoError;
 2710               		.loc 5 75 0
 2711 0084 80E0      		ldi r24,lo8(0)
 2712 0086 0895      		ret
 2713               	.LVL264:
 2714               	.L193:
 2715               	.LBB388:
  48:../../LUFA-Libs/Arduino_LUFA_Bootloader/LUFA/Drivers/USB/Core/AVR8/Template/Template_Endpoint_Control_R.c **** 		  return ENDPOINT_RWCSTREAM_BusSuspended;
 2716               		.loc 5 48 0
 2717 0088 83E0      		ldi r24,lo8(3)
 2718               	.LVL265:
 2719 008a 0895      		ret
 2720               	.L194:
  50:../../LUFA-Libs/Arduino_LUFA_Bootloader/LUFA/Drivers/USB/Core/AVR8/Template/Template_Endpoint_Control_R.c **** 		  return ENDPOINT_RWCSTREAM_HostAborted;
 2721               		.loc 5 50 0
 2722 008c 81E0      		ldi r24,lo8(1)
 2723 008e 0895      		ret
 2724               	.L195:
 2725               	.LBE388:
 2726               	.LBB389:
  70:../../LUFA-Libs/Arduino_LUFA_Bootloader/LUFA/Drivers/USB/Core/AVR8/Template/Template_Endpoint_Control_R.c **** 		  return ENDPOINT_RWCSTREAM_DeviceDisconnected;
 2727               		.loc 5 70 0
 2728 0090 82E0      		ldi r24,lo8(2)
 2729 0092 0895      		ret
 2730               	.LVL266:
 2731               	.L196:
  72:../../LUFA-Libs/Arduino_LUFA_Bootloader/LUFA/Drivers/USB/Core/AVR8/Template/Template_Endpoint_Control_R.c **** 		  return ENDPOINT_RWCSTREAM_BusSuspended;
 2732               		.loc 5 72 0
 2733 0094 83E0      		ldi r24,lo8(3)
 2734               	.LVL267:
 2735               	.LBE389:
  76:../../LUFA-Libs/Arduino_LUFA_Bootloader/LUFA/Drivers/USB/Core/AVR8/Template/Template_Endpoint_Control_R.c **** }
 2736               		.loc 5 76 0
 2737 0096 0895      		ret
 2738               		.cfi_endproc
 2739               	.LFE95:
 2741               		.section	.text.Endpoint_Read_Control_Stream_BE,"ax",@progbits
 2742               	.global	Endpoint_Read_Control_Stream_BE
 2744               	Endpoint_Read_Control_Stream_BE:
 2745               	.LFB96:
  35:../../LUFA-Libs/Arduino_LUFA_Bootloader/LUFA/Drivers/USB/Core/AVR8/Template/Template_Endpoint_Control_R.c **** {
 2746               		.loc 5 35 0
 2747               		.cfi_startproc
 2748               	.LVL268:
 2749               	/* prologue: function */
 2750               	/* frame size = 0 */
 2751               	/* stack size = 0 */
 2752               	.L__stack_usage = 0
  36:../../LUFA-Libs/Arduino_LUFA_Bootloader/LUFA/Drivers/USB/Core/AVR8/Template/Template_Endpoint_Control_R.c **** 	uint8_t* DataStream = ((uint8_t*)Buffer + TEMPLATE_BUFFER_OFFSET(Length));
 2753               		.loc 5 36 0
 2754 0000 FB01      		movw r30,r22
 2755 0002 3197      		sbiw r30,1
 2756 0004 E80F      		add r30,r24
 2757 0006 F91F      		adc r31,r25
 2758               	.LVL269:
  38:../../LUFA-Libs/Arduino_LUFA_Bootloader/LUFA/Drivers/USB/Core/AVR8/Template/Template_Endpoint_Control_R.c **** 	if (!(Length))
 2759               		.loc 5 38 0
 2760 0008 6115      		cp r22,__zero_reg__
 2761 000a 7105      		cpc r23,__zero_reg__
 2762 000c 01F4      		brne .L218
 2763 000e 00C0      		rjmp .L207
 2764               	.LVL270:
 2765               	.L219:
 2766               	.LBB390:
  43:../../LUFA-Libs/Arduino_LUFA_Bootloader/LUFA/Drivers/USB/Core/AVR8/Template/Template_Endpoint_Control_R.c **** 		uint8_t USB_DeviceState_LCL = USB_DeviceState;
 2767               		.loc 5 43 0
 2768 0010 8EB3      		in r24,62-32
 2769               	.LVL271:
  45:../../LUFA-Libs/Arduino_LUFA_Bootloader/LUFA/Drivers/USB/Core/AVR8/Template/Template_Endpoint_Control_R.c **** 		if (USB_DeviceState_LCL == DEVICE_STATE_Unattached)
 2770               		.loc 5 45 0
 2771 0012 8823      		tst r24
 2772 0014 01F0      		breq .L214
  47:../../LUFA-Libs/Arduino_LUFA_Bootloader/LUFA/Drivers/USB/Core/AVR8/Template/Template_Endpoint_Control_R.c **** 		else if (USB_DeviceState_LCL == DEVICE_STATE_Suspended)
 2773               		.loc 5 47 0
 2774 0016 8530      		cpi r24,lo8(5)
 2775 0018 01F0      		breq .L212
 2776               	.LBB391:
 2777               	.LBB392:
 491:../../LUFA-Libs/Arduino_LUFA_Bootloader/LUFA/Drivers/USB/Core/AVR8/../AVR8/../AVR8/Endpoint_AVR8.h **** 				return ((UEINTX & (1 << RXSTPI)) ? true : false);
 2778               		.loc 2 491 0
 2779 001a 8091 E800 		lds r24,232
 2780               	.LVL272:
 2781               	.LBE392:
 2782               	.LBE391:
  49:../../LUFA-Libs/Arduino_LUFA_Bootloader/LUFA/Drivers/USB/Core/AVR8/Template/Template_Endpoint_Control_R.c **** 		else if (Endpoint_IsSETUPReceived())
 2783               		.loc 5 49 0
 2784 001e 83FD      		sbrc r24,3
 2785 0020 00C0      		rjmp .L213
 2786               	.LBB393:
 2787               	.LBB394:
 479:../../LUFA-Libs/Arduino_LUFA_Bootloader/LUFA/Drivers/USB/Core/AVR8/../AVR8/../AVR8/Endpoint_AVR8.h **** 				return ((UEINTX & (1 << RXOUTI)) ? true : false);
 2788               		.loc 2 479 0
 2789 0022 8091 E800 		lds r24,232
 2790               	.LBE394:
 2791               	.LBE393:
  52:../../LUFA-Libs/Arduino_LUFA_Bootloader/LUFA/Drivers/USB/Core/AVR8/Template/Template_Endpoint_Control_R.c **** 		if (Endpoint_IsOUTReceived())
 2792               		.loc 5 52 0
 2793 0026 82FF      		sbrs r24,2
 2794 0028 00C0      		rjmp .L219
 2795 002a 00C0      		rjmp .L216
 2796               	.L208:
 2797               	.LBB395:
 2798               	.LBB396:
 612:../../LUFA-Libs/Arduino_LUFA_Bootloader/LUFA/Drivers/USB/Core/AVR8/../AVR8/../AVR8/Endpoint_AVR8.h **** 				return UEDATX;
 2799               		.loc 2 612 0
 2800 002c 8091 F100 		lds r24,241
 2801               	.LBE396:
 2802               	.LBE395:
  56:../../LUFA-Libs/Arduino_LUFA_Bootloader/LUFA/Drivers/USB/Core/AVR8/Template/Template_Endpoint_Control_R.c **** 				TEMPLATE_TRANSFER_BYTE(DataStream);
 2803               		.loc 5 56 0
 2804 0030 8083      		st Z,r24
  57:../../LUFA-Libs/Arduino_LUFA_Bootloader/LUFA/Drivers/USB/Core/AVR8/Template/Template_Endpoint_Control_R.c **** 				TEMPLATE_BUFFER_MOVE(DataStream, 1);
 2805               		.loc 5 57 0
 2806 0032 3197      		sbiw r30,1
 2807               	.LVL273:
  58:../../LUFA-Libs/Arduino_LUFA_Bootloader/LUFA/Drivers/USB/Core/AVR8/Template/Template_Endpoint_Control_R.c **** 				Length--;
 2808               		.loc 5 58 0
 2809 0034 6150      		subi r22,lo8(-(-1))
 2810 0036 7040      		sbci r23,hi8(-(-1))
 2811               	.LVL274:
  54:../../LUFA-Libs/Arduino_LUFA_Bootloader/LUFA/Drivers/USB/Core/AVR8/Template/Template_Endpoint_Control_R.c **** 			while (Length && Endpoint_BytesInEndpoint())
 2812               		.loc 5 54 0
 2813 0038 01F0      		breq .L207
 2814               	.L216:
 2815               	.LBB397:
 2816               	.LBB398:
 295:../../LUFA-Libs/Arduino_LUFA_Bootloader/LUFA/Drivers/USB/Core/AVR8/../AVR8/../AVR8/Endpoint_AVR8.h **** 					return (((uint16_t)UEBCHX << 8) | UEBCLX);
 2817               		.loc 2 295 0
 2818 003a 9091 F300 		lds r25,243
 2819 003e 8091 F200 		lds r24,242
 2820 0042 392F      		mov r19,r25
 2821 0044 20E0      		ldi r18,lo8(0)
 2822 0046 90E0      		ldi r25,lo8(0)
 2823 0048 822B      		or r24,r18
 2824 004a 932B      		or r25,r19
 2825               	.LBE398:
 2826               	.LBE397:
  54:../../LUFA-Libs/Arduino_LUFA_Bootloader/LUFA/Drivers/USB/Core/AVR8/Template/Template_Endpoint_Control_R.c **** 			while (Length && Endpoint_BytesInEndpoint())
 2827               		.loc 5 54 0
 2828 004c 0097      		sbiw r24,0
 2829 004e 01F4      		brne .L208
 2830               	.L207:
 2831               	.LBB399:
 2832               	.LBB400:
 531:../../LUFA-Libs/Arduino_LUFA_Bootloader/LUFA/Drivers/USB/Core/AVR8/../AVR8/../AVR8/Endpoint_AVR8.h **** 					UEINTX &= ~((1 << RXOUTI) | (1 << FIFOCON));
 2833               		.loc 2 531 0
 2834 0050 8091 E800 		lds r24,232
 2835 0054 8B77      		andi r24,lo8(123)
 2836 0056 8093 E800 		sts 232,r24
 2837               	.L218:
 2838               	.LBE400:
 2839               	.LBE399:
 2840               	.LBE390:
  41:../../LUFA-Libs/Arduino_LUFA_Bootloader/LUFA/Drivers/USB/Core/AVR8/Template/Template_Endpoint_Control_R.c **** 	while (Length)
 2841               		.loc 5 41 0 discriminator 1
 2842 005a 6115      		cp r22,__zero_reg__
 2843 005c 7105      		cpc r23,__zero_reg__
 2844 005e 01F4      		brne .L219
 2845 0060 00C0      		rjmp .L220
 2846               	.L210:
 2847               	.LBB401:
  67:../../LUFA-Libs/Arduino_LUFA_Bootloader/LUFA/Drivers/USB/Core/AVR8/Template/Template_Endpoint_Control_R.c **** 		uint8_t USB_DeviceState_LCL = USB_DeviceState;
 2848               		.loc 5 67 0
 2849 0062 8EB3      		in r24,62-32
 2850               	.LVL275:
  69:../../LUFA-Libs/Arduino_LUFA_Bootloader/LUFA/Drivers/USB/Core/AVR8/Template/Template_Endpoint_Control_R.c **** 		if (USB_DeviceState_LCL == DEVICE_STATE_Unattached)
 2851               		.loc 5 69 0
 2852 0064 8823      		tst r24
 2853 0066 01F0      		breq .L214
  71:../../LUFA-Libs/Arduino_LUFA_Bootloader/LUFA/Drivers/USB/Core/AVR8/Template/Template_Endpoint_Control_R.c **** 		else if (USB_DeviceState_LCL == DEVICE_STATE_Suspended)
 2854               		.loc 5 71 0
 2855 0068 8530      		cpi r24,lo8(5)
 2856 006a 01F0      		breq .L215
 2857               	.LVL276:
 2858               	.L220:
 2859               	.LBE401:
 2860               	.LBB402:
 2861               	.LBB403:
 467:../../LUFA-Libs/Arduino_LUFA_Bootloader/LUFA/Drivers/USB/Core/AVR8/../AVR8/../AVR8/Endpoint_AVR8.h **** 				return ((UEINTX & (1 << TXINI)) ? true : false);
 2862               		.loc 2 467 0 discriminator 1
 2863 006c 8091 E800 		lds r24,232
 2864               	.LBE403:
 2865               	.LBE402:
  65:../../LUFA-Libs/Arduino_LUFA_Bootloader/LUFA/Drivers/USB/Core/AVR8/Template/Template_Endpoint_Control_R.c **** 	while (!(Endpoint_IsINReady()))
 2866               		.loc 5 65 0 discriminator 1
 2867 0070 80FF      		sbrs r24,0
 2868 0072 00C0      		rjmp .L210
  75:../../LUFA-Libs/Arduino_LUFA_Bootloader/LUFA/Drivers/USB/Core/AVR8/Template/Template_Endpoint_Control_R.c **** 	return ENDPOINT_RWCSTREAM_NoError;
 2869               		.loc 5 75 0
 2870 0074 80E0      		ldi r24,lo8(0)
 2871 0076 0895      		ret
 2872               	.LVL277:
 2873               	.L212:
 2874               	.LBB404:
  48:../../LUFA-Libs/Arduino_LUFA_Bootloader/LUFA/Drivers/USB/Core/AVR8/Template/Template_Endpoint_Control_R.c **** 		  return ENDPOINT_RWCSTREAM_BusSuspended;
 2875               		.loc 5 48 0
 2876 0078 83E0      		ldi r24,lo8(3)
 2877               	.LVL278:
 2878 007a 0895      		ret
 2879               	.L213:
  50:../../LUFA-Libs/Arduino_LUFA_Bootloader/LUFA/Drivers/USB/Core/AVR8/Template/Template_Endpoint_Control_R.c **** 		  return ENDPOINT_RWCSTREAM_HostAborted;
 2880               		.loc 5 50 0
 2881 007c 81E0      		ldi r24,lo8(1)
 2882 007e 0895      		ret
 2883               	.L214:
 2884               	.LBE404:
 2885               	.LBB405:
  70:../../LUFA-Libs/Arduino_LUFA_Bootloader/LUFA/Drivers/USB/Core/AVR8/Template/Template_Endpoint_Control_R.c **** 		  return ENDPOINT_RWCSTREAM_DeviceDisconnected;
 2886               		.loc 5 70 0
 2887 0080 82E0      		ldi r24,lo8(2)
 2888 0082 0895      		ret
 2889               	.LVL279:
 2890               	.L215:
  72:../../LUFA-Libs/Arduino_LUFA_Bootloader/LUFA/Drivers/USB/Core/AVR8/Template/Template_Endpoint_Control_R.c **** 		  return ENDPOINT_RWCSTREAM_BusSuspended;
 2891               		.loc 5 72 0
 2892 0084 83E0      		ldi r24,lo8(3)
 2893               	.LVL280:
 2894               	.LBE405:
 2895               		.loc 5 76 0
 2896 0086 0895      		ret
 2897               		.cfi_endproc
 2898               	.LFE96:
 2900               		.section	.text.Endpoint_Write_Control_PStream_LE,"ax",@progbits
 2901               	.global	Endpoint_Write_Control_PStream_LE
 2903               	Endpoint_Write_Control_PStream_LE:
 2904               	.LFB97:
  35:../../LUFA-Libs/Arduino_LUFA_Bootloader/LUFA/Drivers/USB/Core/AVR8/Template/Template_Endpoint_Control_W.c **** {
 2905               		.loc 4 35 0
 2906               		.cfi_startproc
 2907               	.LVL281:
 2908               	/* prologue: function */
 2909               	/* frame size = 0 */
 2910               	/* stack size = 0 */
 2911               	.L__stack_usage = 0
  39:../../LUFA-Libs/Arduino_LUFA_Bootloader/LUFA/Drivers/USB/Core/AVR8/Template/Template_Endpoint_Control_W.c **** 	if (Length > USB_ControlRequest.wLength)
 2912               		.loc 4 39 0
 2913 0000 4091 0000 		lds r20,USB_ControlRequest+6
 2914 0004 5091 0000 		lds r21,USB_ControlRequest+6+1
 2915 0008 4617      		cp r20,r22
 2916 000a 5707      		cpc r21,r23
 2917 000c 00F4      		brsh .L222
 2918 000e BA01      		movw r22,r20
 2919               	.LVL282:
 2920               	.L224:
  39:../../LUFA-Libs/Arduino_LUFA_Bootloader/LUFA/Drivers/USB/Core/AVR8/Template/Template_Endpoint_Control_W.c **** 	if (Length > USB_ControlRequest.wLength)
 2921               		.loc 4 39 0 is_stmt 0 discriminator 1
 2922 0010 FC01      		movw r30,r24
 2923 0012 40E0      		ldi r20,lo8(0)
 2924 0014 00C0      		rjmp .L242
 2925               	.LVL283:
 2926               	.L222:
  41:../../LUFA-Libs/Arduino_LUFA_Bootloader/LUFA/Drivers/USB/Core/AVR8/Template/Template_Endpoint_Control_W.c **** 	else if (!(Length))
 2927               		.loc 4 41 0 is_stmt 1
 2928 0016 6115      		cp r22,__zero_reg__
 2929 0018 7105      		cpc r23,__zero_reg__
 2930 001a 01F4      		brne .L224
 2931               	.LBB406:
 2932               	.LBB407:
 516:../../LUFA-Libs/Arduino_LUFA_Bootloader/LUFA/Drivers/USB/Core/AVR8/../AVR8/../AVR8/Endpoint_AVR8.h **** 					UEINTX &= ~((1 << TXINI) | (1 << FIFOCON));
 2933               		.loc 2 516 0
 2934 001c 4091 E800 		lds r20,232
 2935 0020 4E77      		andi r20,lo8(126)
 2936 0022 4093 E800 		sts 232,r20
 2937 0026 00C0      		rjmp .L224
 2938               	.LVL284:
 2939               	.L232:
 2940               	.LBE407:
 2941               	.LBE406:
 2942               	.LBB408:
  46:../../LUFA-Libs/Arduino_LUFA_Bootloader/LUFA/Drivers/USB/Core/AVR8/Template/Template_Endpoint_Control_W.c **** 		uint8_t USB_DeviceState_LCL = USB_DeviceState;
 2943               		.loc 4 46 0
 2944 0028 8EB3      		in r24,62-32
 2945               	.LVL285:
  48:../../LUFA-Libs/Arduino_LUFA_Bootloader/LUFA/Drivers/USB/Core/AVR8/Template/Template_Endpoint_Control_W.c **** 		if (USB_DeviceState_LCL == DEVICE_STATE_Unattached)
 2946               		.loc 4 48 0
 2947 002a 8823      		tst r24
 2948 002c 01F4      		brne .+2
 2949 002e 00C0      		rjmp .L237
  50:../../LUFA-Libs/Arduino_LUFA_Bootloader/LUFA/Drivers/USB/Core/AVR8/Template/Template_Endpoint_Control_W.c **** 		else if (USB_DeviceState_LCL == DEVICE_STATE_Suspended)
 2950               		.loc 4 50 0
 2951 0030 8530      		cpi r24,lo8(5)
 2952 0032 01F4      		brne .+2
 2953 0034 00C0      		rjmp .L235
 2954               	.LBB409:
 2955               	.LBB410:
 491:../../LUFA-Libs/Arduino_LUFA_Bootloader/LUFA/Drivers/USB/Core/AVR8/../AVR8/../AVR8/Endpoint_AVR8.h **** 				return ((UEINTX & (1 << RXSTPI)) ? true : false);
 2956               		.loc 2 491 0
 2957 0036 8091 E800 		lds r24,232
 2958               	.LVL286:
 2959               	.LBE410:
 2960               	.LBE409:
  52:../../LUFA-Libs/Arduino_LUFA_Bootloader/LUFA/Drivers/USB/Core/AVR8/Template/Template_Endpoint_Control_W.c **** 		else if (Endpoint_IsSETUPReceived())
 2961               		.loc 4 52 0
 2962 003a 83FD      		sbrc r24,3
 2963 003c 00C0      		rjmp .L236
 2964               	.LBB411:
 2965               	.LBB412:
 479:../../LUFA-Libs/Arduino_LUFA_Bootloader/LUFA/Drivers/USB/Core/AVR8/../AVR8/../AVR8/Endpoint_AVR8.h **** 				return ((UEINTX & (1 << RXOUTI)) ? true : false);
 2966               		.loc 2 479 0
 2967 003e 8091 E800 		lds r24,232
 2968               	.LBE412:
 2969               	.LBE411:
  54:../../LUFA-Libs/Arduino_LUFA_Bootloader/LUFA/Drivers/USB/Core/AVR8/Template/Template_Endpoint_Control_W.c **** 		else if (Endpoint_IsOUTReceived())
 2970               		.loc 4 54 0
 2971 0042 82FD      		sbrc r24,2
 2972 0044 00C0      		rjmp .L240
 2973               	.LBB413:
 2974               	.LBB414:
 467:../../LUFA-Libs/Arduino_LUFA_Bootloader/LUFA/Drivers/USB/Core/AVR8/../AVR8/../AVR8/Endpoint_AVR8.h **** 				return ((UEINTX & (1 << TXINI)) ? true : false);
 2975               		.loc 2 467 0
 2976 0046 8091 E800 		lds r24,232
 2977               	.LBE414:
 2978               	.LBE413:
  57:../../LUFA-Libs/Arduino_LUFA_Bootloader/LUFA/Drivers/USB/Core/AVR8/Template/Template_Endpoint_Control_W.c **** 		if (Endpoint_IsINReady())
 2979               		.loc 4 57 0
 2980 004a 80FF      		sbrs r24,0
 2981 004c 00C0      		rjmp .L242
 2982               	.LBB415:
 2983               	.LBB416:
 2984               	.LBB417:
 295:../../LUFA-Libs/Arduino_LUFA_Bootloader/LUFA/Drivers/USB/Core/AVR8/../AVR8/../AVR8/Endpoint_AVR8.h **** 					return (((uint16_t)UEBCHX << 8) | UEBCLX);
 2985               		.loc 2 295 0
 2986 004e 9091 F300 		lds r25,243
 2987 0052 8091 F200 		lds r24,242
 2988 0056 392F      		mov r19,r25
 2989 0058 20E0      		ldi r18,lo8(0)
 2990 005a 90E0      		ldi r25,lo8(0)
 2991 005c 822B      		or r24,r18
 2992 005e 932B      		or r25,r19
 2993               	.LBE417:
 2994               	.LBE416:
  61:../../LUFA-Libs/Arduino_LUFA_Bootloader/LUFA/Drivers/USB/Core/AVR8/Template/Template_Endpoint_Control_W.c **** 			while (Length && (BytesInEndpoint < USB_Device_ControlEndpointSize))
 2995               		.loc 4 61 0
 2996 0060 00C0      		rjmp .L228
 2997               	.LVL287:
 2998               	.L230:
 2999               	.LBB418:
  63:../../LUFA-Libs/Arduino_LUFA_Bootloader/LUFA/Drivers/USB/Core/AVR8/Template/Template_Endpoint_Control_W.c **** 				TEMPLATE_TRANSFER_BYTE(DataStream);
 3000               		.loc 4 63 0
 3001               	/* #APP */
 3002               	 ;  63 "../../LUFA-Libs/Arduino_LUFA_Bootloader/LUFA/Drivers/USB/Core/AVR8/Template/Template_Endpoi
 3003 0062 4491      		lpm r20, Z
 3004               		
 3005               	 ;  0 "" 2
 3006               	.LVL288:
 3007               	/* #NOAPP */
 3008               	.LBE418:
 3009               	.LBB419:
 3010               	.LBB420:
 624:../../LUFA-Libs/Arduino_LUFA_Bootloader/LUFA/Drivers/USB/Core/AVR8/../AVR8/../AVR8/Endpoint_AVR8.h **** 				UEDATX = Data;
 3011               		.loc 2 624 0
 3012 0064 4093 F100 		sts 241,r20
 3013               	.LBE420:
 3014               	.LBE419:
  64:../../LUFA-Libs/Arduino_LUFA_Bootloader/LUFA/Drivers/USB/Core/AVR8/Template/Template_Endpoint_Control_W.c **** 				TEMPLATE_BUFFER_MOVE(DataStream, 1);
 3015               		.loc 4 64 0
 3016 0068 3196      		adiw r30,1
 3017               	.LVL289:
  65:../../LUFA-Libs/Arduino_LUFA_Bootloader/LUFA/Drivers/USB/Core/AVR8/Template/Template_Endpoint_Control_W.c **** 				Length--;
 3018               		.loc 4 65 0
 3019 006a 6150      		subi r22,lo8(-(-1))
 3020 006c 7040      		sbci r23,hi8(-(-1))
 3021               	.LVL290:
  66:../../LUFA-Libs/Arduino_LUFA_Bootloader/LUFA/Drivers/USB/Core/AVR8/Template/Template_Endpoint_Control_W.c **** 				BytesInEndpoint++;
 3022               		.loc 4 66 0
 3023 006e 0196      		adiw r24,1
 3024               	.LVL291:
 3025               	.L228:
  61:../../LUFA-Libs/Arduino_LUFA_Bootloader/LUFA/Drivers/USB/Core/AVR8/Template/Template_Endpoint_Control_W.c **** 			while (Length && (BytesInEndpoint < USB_Device_ControlEndpointSize))
 3026               		.loc 4 61 0 discriminator 1
 3027 0070 6115      		cp r22,__zero_reg__
 3028 0072 7105      		cpc r23,__zero_reg__
 3029 0074 01F0      		breq .L229
  61:../../LUFA-Libs/Arduino_LUFA_Bootloader/LUFA/Drivers/USB/Core/AVR8/Template/Template_Endpoint_Control_W.c **** 			while (Length && (BytesInEndpoint < USB_Device_ControlEndpointSize))
 3030               		.loc 4 61 0 is_stmt 0 discriminator 2
 3031 0076 8830      		cpi r24,8
 3032 0078 9105      		cpc r25,__zero_reg__
 3033 007a 00F0      		brlo .L230
 3034               	.L229:
  69:../../LUFA-Libs/Arduino_LUFA_Bootloader/LUFA/Drivers/USB/Core/AVR8/Template/Template_Endpoint_Control_W.c **** 			LastPacketFull = (BytesInEndpoint == USB_Device_ControlEndpointSize);
 3035               		.loc 4 69 0 is_stmt 1
 3036 007c 41E0      		ldi r20,lo8(1)
 3037 007e 8830      		cpi r24,8
 3038 0080 9105      		cpc r25,__zero_reg__
 3039 0082 01F0      		breq .L231
 3040 0084 40E0      		ldi r20,lo8(0)
 3041               	.L231:
 3042               	.LVL292:
 3043               	.LBB421:
 3044               	.LBB422:
 516:../../LUFA-Libs/Arduino_LUFA_Bootloader/LUFA/Drivers/USB/Core/AVR8/../AVR8/../AVR8/Endpoint_AVR8.h **** 					UEINTX &= ~((1 << TXINI) | (1 << FIFOCON));
 3045               		.loc 2 516 0
 3046 0086 8091 E800 		lds r24,232
 3047               	.LVL293:
 3048 008a 8E77      		andi r24,lo8(126)
 3049 008c 8093 E800 		sts 232,r24
 3050               	.LVL294:
 3051               	.L242:
 3052               	.LBE422:
 3053               	.LBE421:
 3054               	.LBE415:
 3055               	.LBE408:
  44:../../LUFA-Libs/Arduino_LUFA_Bootloader/LUFA/Drivers/USB/Core/AVR8/Template/Template_Endpoint_Control_W.c **** 	while (Length || LastPacketFull)
 3056               		.loc 4 44 0 discriminator 1
 3057 0090 6115      		cp r22,__zero_reg__
 3058 0092 7105      		cpc r23,__zero_reg__
 3059 0094 01F4      		brne .L232
  44:../../LUFA-Libs/Arduino_LUFA_Bootloader/LUFA/Drivers/USB/Core/AVR8/Template/Template_Endpoint_Control_W.c **** 	while (Length || LastPacketFull)
 3060               		.loc 4 44 0 is_stmt 0 discriminator 2
 3061 0096 4423      		tst r20
 3062 0098 01F4      		brne .L232
 3063 009a 00C0      		rjmp .L240
 3064               	.L233:
 3065               	.LBB423:
  76:../../LUFA-Libs/Arduino_LUFA_Bootloader/LUFA/Drivers/USB/Core/AVR8/Template/Template_Endpoint_Control_W.c **** 		uint8_t USB_DeviceState_LCL = USB_DeviceState;
 3066               		.loc 4 76 0 is_stmt 1
 3067 009c 8EB3      		in r24,62-32
 3068               	.LVL295:
  78:../../LUFA-Libs/Arduino_LUFA_Bootloader/LUFA/Drivers/USB/Core/AVR8/Template/Template_Endpoint_Control_W.c **** 		if (USB_DeviceState_LCL == DEVICE_STATE_Unattached)
 3069               		.loc 4 78 0
 3070 009e 8823      		tst r24
 3071 00a0 01F0      		breq .L237
  80:../../LUFA-Libs/Arduino_LUFA_Bootloader/LUFA/Drivers/USB/Core/AVR8/Template/Template_Endpoint_Control_W.c **** 		else if (USB_DeviceState_LCL == DEVICE_STATE_Suspended)
 3072               		.loc 4 80 0
 3073 00a2 8530      		cpi r24,lo8(5)
 3074 00a4 01F0      		breq .L238
 3075               	.LVL296:
 3076               	.L240:
 3077               	.LBE423:
 3078               	.LBB424:
 3079               	.LBB425:
 479:../../LUFA-Libs/Arduino_LUFA_Bootloader/LUFA/Drivers/USB/Core/AVR8/../AVR8/../AVR8/Endpoint_AVR8.h **** 				return ((UEINTX & (1 << RXOUTI)) ? true : false);
 3080               		.loc 2 479 0 discriminator 1
 3081 00a6 8091 E800 		lds r24,232
 3082               	.LBE425:
 3083               	.LBE424:
  74:../../LUFA-Libs/Arduino_LUFA_Bootloader/LUFA/Drivers/USB/Core/AVR8/Template/Template_Endpoint_Control_W.c **** 	while (!(Endpoint_IsOUTReceived()))
 3084               		.loc 4 74 0 discriminator 1
 3085 00aa 82FF      		sbrs r24,2
 3086 00ac 00C0      		rjmp .L233
  84:../../LUFA-Libs/Arduino_LUFA_Bootloader/LUFA/Drivers/USB/Core/AVR8/Template/Template_Endpoint_Control_W.c **** 	return ENDPOINT_RWCSTREAM_NoError;
 3087               		.loc 4 84 0
 3088 00ae 80E0      		ldi r24,lo8(0)
 3089 00b0 0895      		ret
 3090               	.LVL297:
 3091               	.L235:
 3092               	.LBB426:
  51:../../LUFA-Libs/Arduino_LUFA_Bootloader/LUFA/Drivers/USB/Core/AVR8/Template/Template_Endpoint_Control_W.c **** 		  return ENDPOINT_RWCSTREAM_BusSuspended;
 3093               		.loc 4 51 0
 3094 00b2 83E0      		ldi r24,lo8(3)
 3095               	.LVL298:
 3096 00b4 0895      		ret
 3097               	.L236:
  53:../../LUFA-Libs/Arduino_LUFA_Bootloader/LUFA/Drivers/USB/Core/AVR8/Template/Template_Endpoint_Control_W.c **** 		  return ENDPOINT_RWCSTREAM_HostAborted;
 3098               		.loc 4 53 0
 3099 00b6 81E0      		ldi r24,lo8(1)
 3100 00b8 0895      		ret
 3101               	.L237:
 3102               	.LBE426:
 3103               	.LBB427:
  79:../../LUFA-Libs/Arduino_LUFA_Bootloader/LUFA/Drivers/USB/Core/AVR8/Template/Template_Endpoint_Control_W.c **** 		  return ENDPOINT_RWCSTREAM_DeviceDisconnected;
 3104               		.loc 4 79 0
 3105 00ba 82E0      		ldi r24,lo8(2)
 3106 00bc 0895      		ret
 3107               	.LVL299:
 3108               	.L238:
  81:../../LUFA-Libs/Arduino_LUFA_Bootloader/LUFA/Drivers/USB/Core/AVR8/Template/Template_Endpoint_Control_W.c **** 		  return ENDPOINT_RWCSTREAM_BusSuspended;
 3109               		.loc 4 81 0
 3110 00be 83E0      		ldi r24,lo8(3)
 3111               	.LVL300:
 3112               	.LBE427:
 3113               		.loc 4 85 0
 3114 00c0 0895      		ret
 3115               		.cfi_endproc
 3116               	.LFE97:
 3118               		.section	.text.Endpoint_Write_Control_PStream_BE,"ax",@progbits
 3119               	.global	Endpoint_Write_Control_PStream_BE
 3121               	Endpoint_Write_Control_PStream_BE:
 3122               	.LFB98:
  35:../../LUFA-Libs/Arduino_LUFA_Bootloader/LUFA/Drivers/USB/Core/AVR8/Template/Template_Endpoint_Control_W.c **** {
 3123               		.loc 4 35 0
 3124               		.cfi_startproc
 3125               	.LVL301:
 3126               	/* prologue: function */
 3127               	/* frame size = 0 */
 3128               	/* stack size = 0 */
 3129               	.L__stack_usage = 0
  36:../../LUFA-Libs/Arduino_LUFA_Bootloader/LUFA/Drivers/USB/Core/AVR8/Template/Template_Endpoint_Control_W.c **** 	uint8_t* DataStream     = ((uint8_t*)Buffer + TEMPLATE_BUFFER_OFFSET(Length));
 3130               		.loc 4 36 0
 3131 0000 FB01      		movw r30,r22
 3132 0002 3197      		sbiw r30,1
 3133 0004 E80F      		add r30,r24
 3134 0006 F91F      		adc r31,r25
 3135               	.LVL302:
  39:../../LUFA-Libs/Arduino_LUFA_Bootloader/LUFA/Drivers/USB/Core/AVR8/Template/Template_Endpoint_Control_W.c **** 	if (Length > USB_ControlRequest.wLength)
 3136               		.loc 4 39 0
 3137 0008 8091 0000 		lds r24,USB_ControlRequest+6
 3138 000c 9091 0000 		lds r25,USB_ControlRequest+6+1
 3139               	.LVL303:
 3140 0010 8617      		cp r24,r22
 3141 0012 9707      		cpc r25,r23
 3142 0014 00F4      		brsh .L244
 3143 0016 BC01      		movw r22,r24
 3144               	.LVL304:
 3145               	.L246:
  39:../../LUFA-Libs/Arduino_LUFA_Bootloader/LUFA/Drivers/USB/Core/AVR8/Template/Template_Endpoint_Control_W.c **** 	if (Length > USB_ControlRequest.wLength)
 3146               		.loc 4 39 0 is_stmt 0 discriminator 1
 3147 0018 40E0      		ldi r20,lo8(0)
 3148 001a 00C0      		rjmp .L264
 3149               	.LVL305:
 3150               	.L244:
  41:../../LUFA-Libs/Arduino_LUFA_Bootloader/LUFA/Drivers/USB/Core/AVR8/Template/Template_Endpoint_Control_W.c **** 	else if (!(Length))
 3151               		.loc 4 41 0 is_stmt 1
 3152 001c 6115      		cp r22,__zero_reg__
 3153 001e 7105      		cpc r23,__zero_reg__
 3154 0020 01F4      		brne .L246
 3155               	.LBB428:
 3156               	.LBB429:
 516:../../LUFA-Libs/Arduino_LUFA_Bootloader/LUFA/Drivers/USB/Core/AVR8/../AVR8/../AVR8/Endpoint_AVR8.h **** 					UEINTX &= ~((1 << TXINI) | (1 << FIFOCON));
 3157               		.loc 2 516 0
 3158 0022 8091 E800 		lds r24,232
 3159 0026 8E77      		andi r24,lo8(126)
 3160 0028 8093 E800 		sts 232,r24
 3161 002c 00C0      		rjmp .L246
 3162               	.LVL306:
 3163               	.L254:
 3164               	.LBE429:
 3165               	.LBE428:
 3166               	.LBB430:
  46:../../LUFA-Libs/Arduino_LUFA_Bootloader/LUFA/Drivers/USB/Core/AVR8/Template/Template_Endpoint_Control_W.c **** 		uint8_t USB_DeviceState_LCL = USB_DeviceState;
 3167               		.loc 4 46 0
 3168 002e 8EB3      		in r24,62-32
 3169               	.LVL307:
  48:../../LUFA-Libs/Arduino_LUFA_Bootloader/LUFA/Drivers/USB/Core/AVR8/Template/Template_Endpoint_Control_W.c **** 		if (USB_DeviceState_LCL == DEVICE_STATE_Unattached)
 3170               		.loc 4 48 0
 3171 0030 8823      		tst r24
 3172 0032 01F4      		brne .+2
 3173 0034 00C0      		rjmp .L259
  50:../../LUFA-Libs/Arduino_LUFA_Bootloader/LUFA/Drivers/USB/Core/AVR8/Template/Template_Endpoint_Control_W.c **** 		else if (USB_DeviceState_LCL == DEVICE_STATE_Suspended)
 3174               		.loc 4 50 0
 3175 0036 8530      		cpi r24,lo8(5)
 3176 0038 01F4      		brne .+2
 3177 003a 00C0      		rjmp .L257
 3178               	.LBB431:
 3179               	.LBB432:
 491:../../LUFA-Libs/Arduino_LUFA_Bootloader/LUFA/Drivers/USB/Core/AVR8/../AVR8/../AVR8/Endpoint_AVR8.h **** 				return ((UEINTX & (1 << RXSTPI)) ? true : false);
 3180               		.loc 2 491 0
 3181 003c 8091 E800 		lds r24,232
 3182               	.LVL308:
 3183               	.LBE432:
 3184               	.LBE431:
  52:../../LUFA-Libs/Arduino_LUFA_Bootloader/LUFA/Drivers/USB/Core/AVR8/Template/Template_Endpoint_Control_W.c **** 		else if (Endpoint_IsSETUPReceived())
 3185               		.loc 4 52 0
 3186 0040 83FD      		sbrc r24,3
 3187 0042 00C0      		rjmp .L258
 3188               	.LBB433:
 3189               	.LBB434:
 479:../../LUFA-Libs/Arduino_LUFA_Bootloader/LUFA/Drivers/USB/Core/AVR8/../AVR8/../AVR8/Endpoint_AVR8.h **** 				return ((UEINTX & (1 << RXOUTI)) ? true : false);
 3190               		.loc 2 479 0
 3191 0044 8091 E800 		lds r24,232
 3192               	.LBE434:
 3193               	.LBE433:
  54:../../LUFA-Libs/Arduino_LUFA_Bootloader/LUFA/Drivers/USB/Core/AVR8/Template/Template_Endpoint_Control_W.c **** 		else if (Endpoint_IsOUTReceived())
 3194               		.loc 4 54 0
 3195 0048 82FD      		sbrc r24,2
 3196 004a 00C0      		rjmp .L262
 3197               	.LBB435:
 3198               	.LBB436:
 467:../../LUFA-Libs/Arduino_LUFA_Bootloader/LUFA/Drivers/USB/Core/AVR8/../AVR8/../AVR8/Endpoint_AVR8.h **** 				return ((UEINTX & (1 << TXINI)) ? true : false);
 3199               		.loc 2 467 0
 3200 004c 8091 E800 		lds r24,232
 3201               	.LBE436:
 3202               	.LBE435:
  57:../../LUFA-Libs/Arduino_LUFA_Bootloader/LUFA/Drivers/USB/Core/AVR8/Template/Template_Endpoint_Control_W.c **** 		if (Endpoint_IsINReady())
 3203               		.loc 4 57 0
 3204 0050 80FF      		sbrs r24,0
 3205 0052 00C0      		rjmp .L264
 3206               	.LBB437:
 3207               	.LBB438:
 3208               	.LBB439:
 295:../../LUFA-Libs/Arduino_LUFA_Bootloader/LUFA/Drivers/USB/Core/AVR8/../AVR8/../AVR8/Endpoint_AVR8.h **** 					return (((uint16_t)UEBCHX << 8) | UEBCLX);
 3209               		.loc 2 295 0
 3210 0054 9091 F300 		lds r25,243
 3211 0058 8091 F200 		lds r24,242
 3212 005c 392F      		mov r19,r25
 3213 005e 20E0      		ldi r18,lo8(0)
 3214 0060 90E0      		ldi r25,lo8(0)
 3215 0062 822B      		or r24,r18
 3216 0064 932B      		or r25,r19
 3217               	.LBE439:
 3218               	.LBE438:
  61:../../LUFA-Libs/Arduino_LUFA_Bootloader/LUFA/Drivers/USB/Core/AVR8/Template/Template_Endpoint_Control_W.c **** 			while (Length && (BytesInEndpoint < USB_Device_ControlEndpointSize))
 3219               		.loc 4 61 0
 3220 0066 00C0      		rjmp .L250
 3221               	.LVL309:
 3222               	.L252:
 3223               	.LBB440:
  63:../../LUFA-Libs/Arduino_LUFA_Bootloader/LUFA/Drivers/USB/Core/AVR8/Template/Template_Endpoint_Control_W.c **** 				TEMPLATE_TRANSFER_BYTE(DataStream);
 3224               		.loc 4 63 0
 3225               	/* #APP */
 3226               	 ;  63 "../../LUFA-Libs/Arduino_LUFA_Bootloader/LUFA/Drivers/USB/Core/AVR8/Template/Template_Endpoi
 3227 0068 4491      		lpm r20, Z
 3228               		
 3229               	 ;  0 "" 2
 3230               	.LVL310:
 3231               	/* #NOAPP */
 3232               	.LBE440:
 3233               	.LBB441:
 3234               	.LBB442:
 624:../../LUFA-Libs/Arduino_LUFA_Bootloader/LUFA/Drivers/USB/Core/AVR8/../AVR8/../AVR8/Endpoint_AVR8.h **** 				UEDATX = Data;
 3235               		.loc 2 624 0
 3236 006a 4093 F100 		sts 241,r20
 3237               	.LBE442:
 3238               	.LBE441:
  64:../../LUFA-Libs/Arduino_LUFA_Bootloader/LUFA/Drivers/USB/Core/AVR8/Template/Template_Endpoint_Control_W.c **** 				TEMPLATE_BUFFER_MOVE(DataStream, 1);
 3239               		.loc 4 64 0
 3240 006e 3197      		sbiw r30,1
 3241               	.LVL311:
  65:../../LUFA-Libs/Arduino_LUFA_Bootloader/LUFA/Drivers/USB/Core/AVR8/Template/Template_Endpoint_Control_W.c **** 				Length--;
 3242               		.loc 4 65 0
 3243 0070 6150      		subi r22,lo8(-(-1))
 3244 0072 7040      		sbci r23,hi8(-(-1))
 3245               	.LVL312:
  66:../../LUFA-Libs/Arduino_LUFA_Bootloader/LUFA/Drivers/USB/Core/AVR8/Template/Template_Endpoint_Control_W.c **** 				BytesInEndpoint++;
 3246               		.loc 4 66 0
 3247 0074 0196      		adiw r24,1
 3248               	.LVL313:
 3249               	.L250:
  61:../../LUFA-Libs/Arduino_LUFA_Bootloader/LUFA/Drivers/USB/Core/AVR8/Template/Template_Endpoint_Control_W.c **** 			while (Length && (BytesInEndpoint < USB_Device_ControlEndpointSize))
 3250               		.loc 4 61 0 discriminator 1
 3251 0076 6115      		cp r22,__zero_reg__
 3252 0078 7105      		cpc r23,__zero_reg__
 3253 007a 01F0      		breq .L251
  61:../../LUFA-Libs/Arduino_LUFA_Bootloader/LUFA/Drivers/USB/Core/AVR8/Template/Template_Endpoint_Control_W.c **** 			while (Length && (BytesInEndpoint < USB_Device_ControlEndpointSize))
 3254               		.loc 4 61 0 is_stmt 0 discriminator 2
 3255 007c 8830      		cpi r24,8
 3256 007e 9105      		cpc r25,__zero_reg__
 3257 0080 00F0      		brlo .L252
 3258               	.L251:
  69:../../LUFA-Libs/Arduino_LUFA_Bootloader/LUFA/Drivers/USB/Core/AVR8/Template/Template_Endpoint_Control_W.c **** 			LastPacketFull = (BytesInEndpoint == USB_Device_ControlEndpointSize);
 3259               		.loc 4 69 0 is_stmt 1
 3260 0082 41E0      		ldi r20,lo8(1)
 3261 0084 8830      		cpi r24,8
 3262 0086 9105      		cpc r25,__zero_reg__
 3263 0088 01F0      		breq .L253
 3264 008a 40E0      		ldi r20,lo8(0)
 3265               	.L253:
 3266               	.LVL314:
 3267               	.LBB443:
 3268               	.LBB444:
 516:../../LUFA-Libs/Arduino_LUFA_Bootloader/LUFA/Drivers/USB/Core/AVR8/../AVR8/../AVR8/Endpoint_AVR8.h **** 					UEINTX &= ~((1 << TXINI) | (1 << FIFOCON));
 3269               		.loc 2 516 0
 3270 008c 8091 E800 		lds r24,232
 3271               	.LVL315:
 3272 0090 8E77      		andi r24,lo8(126)
 3273 0092 8093 E800 		sts 232,r24
 3274               	.LVL316:
 3275               	.L264:
 3276               	.LBE444:
 3277               	.LBE443:
 3278               	.LBE437:
 3279               	.LBE430:
  44:../../LUFA-Libs/Arduino_LUFA_Bootloader/LUFA/Drivers/USB/Core/AVR8/Template/Template_Endpoint_Control_W.c **** 	while (Length || LastPacketFull)
 3280               		.loc 4 44 0 discriminator 1
 3281 0096 6115      		cp r22,__zero_reg__
 3282 0098 7105      		cpc r23,__zero_reg__
 3283 009a 01F4      		brne .L254
  44:../../LUFA-Libs/Arduino_LUFA_Bootloader/LUFA/Drivers/USB/Core/AVR8/Template/Template_Endpoint_Control_W.c **** 	while (Length || LastPacketFull)
 3284               		.loc 4 44 0 is_stmt 0 discriminator 2
 3285 009c 4423      		tst r20
 3286 009e 01F4      		brne .L254
 3287 00a0 00C0      		rjmp .L262
 3288               	.L255:
 3289               	.LBB445:
  76:../../LUFA-Libs/Arduino_LUFA_Bootloader/LUFA/Drivers/USB/Core/AVR8/Template/Template_Endpoint_Control_W.c **** 		uint8_t USB_DeviceState_LCL = USB_DeviceState;
 3290               		.loc 4 76 0 is_stmt 1
 3291 00a2 8EB3      		in r24,62-32
 3292               	.LVL317:
  78:../../LUFA-Libs/Arduino_LUFA_Bootloader/LUFA/Drivers/USB/Core/AVR8/Template/Template_Endpoint_Control_W.c **** 		if (USB_DeviceState_LCL == DEVICE_STATE_Unattached)
 3293               		.loc 4 78 0
 3294 00a4 8823      		tst r24
 3295 00a6 01F0      		breq .L259
  80:../../LUFA-Libs/Arduino_LUFA_Bootloader/LUFA/Drivers/USB/Core/AVR8/Template/Template_Endpoint_Control_W.c **** 		else if (USB_DeviceState_LCL == DEVICE_STATE_Suspended)
 3296               		.loc 4 80 0
 3297 00a8 8530      		cpi r24,lo8(5)
 3298 00aa 01F0      		breq .L260
 3299               	.LVL318:
 3300               	.L262:
 3301               	.LBE445:
 3302               	.LBB446:
 3303               	.LBB447:
 479:../../LUFA-Libs/Arduino_LUFA_Bootloader/LUFA/Drivers/USB/Core/AVR8/../AVR8/../AVR8/Endpoint_AVR8.h **** 				return ((UEINTX & (1 << RXOUTI)) ? true : false);
 3304               		.loc 2 479 0 discriminator 1
 3305 00ac 8091 E800 		lds r24,232
 3306               	.LBE447:
 3307               	.LBE446:
  74:../../LUFA-Libs/Arduino_LUFA_Bootloader/LUFA/Drivers/USB/Core/AVR8/Template/Template_Endpoint_Control_W.c **** 	while (!(Endpoint_IsOUTReceived()))
 3308               		.loc 4 74 0 discriminator 1
 3309 00b0 82FF      		sbrs r24,2
 3310 00b2 00C0      		rjmp .L255
  84:../../LUFA-Libs/Arduino_LUFA_Bootloader/LUFA/Drivers/USB/Core/AVR8/Template/Template_Endpoint_Control_W.c **** 	return ENDPOINT_RWCSTREAM_NoError;
 3311               		.loc 4 84 0
 3312 00b4 80E0      		ldi r24,lo8(0)
 3313 00b6 0895      		ret
 3314               	.LVL319:
 3315               	.L257:
 3316               	.LBB448:
  51:../../LUFA-Libs/Arduino_LUFA_Bootloader/LUFA/Drivers/USB/Core/AVR8/Template/Template_Endpoint_Control_W.c **** 		  return ENDPOINT_RWCSTREAM_BusSuspended;
 3317               		.loc 4 51 0
 3318 00b8 83E0      		ldi r24,lo8(3)
 3319               	.LVL320:
 3320 00ba 0895      		ret
 3321               	.L258:
  53:../../LUFA-Libs/Arduino_LUFA_Bootloader/LUFA/Drivers/USB/Core/AVR8/Template/Template_Endpoint_Control_W.c **** 		  return ENDPOINT_RWCSTREAM_HostAborted;
 3322               		.loc 4 53 0
 3323 00bc 81E0      		ldi r24,lo8(1)
 3324 00be 0895      		ret
 3325               	.L259:
 3326               	.LBE448:
 3327               	.LBB449:
  79:../../LUFA-Libs/Arduino_LUFA_Bootloader/LUFA/Drivers/USB/Core/AVR8/Template/Template_Endpoint_Control_W.c **** 		  return ENDPOINT_RWCSTREAM_DeviceDisconnected;
 3328               		.loc 4 79 0
 3329 00c0 82E0      		ldi r24,lo8(2)
 3330 00c2 0895      		ret
 3331               	.LVL321:
 3332               	.L260:
  81:../../LUFA-Libs/Arduino_LUFA_Bootloader/LUFA/Drivers/USB/Core/AVR8/Template/Template_Endpoint_Control_W.c **** 		  return ENDPOINT_RWCSTREAM_BusSuspended;
 3333               		.loc 4 81 0
 3334 00c4 83E0      		ldi r24,lo8(3)
 3335               	.LVL322:
 3336               	.LBE449:
 3337               		.loc 4 85 0
 3338 00c6 0895      		ret
 3339               		.cfi_endproc
 3340               	.LFE98:
 3342               		.section	.text.Endpoint_Write_Control_EStream_LE,"ax",@progbits
 3343               	.global	Endpoint_Write_Control_EStream_LE
 3345               	Endpoint_Write_Control_EStream_LE:
 3346               	.LFB99:
  35:../../LUFA-Libs/Arduino_LUFA_Bootloader/LUFA/Drivers/USB/Core/AVR8/Template/Template_Endpoint_Control_W.c **** {
 3347               		.loc 4 35 0
 3348               		.cfi_startproc
 3349               	.LVL323:
 3350 0000 CF92      		push r12
 3351               	.LCFI104:
 3352               		.cfi_def_cfa_offset 3
 3353               		.cfi_offset 12, -2
 3354 0002 DF92      		push r13
 3355               	.LCFI105:
 3356               		.cfi_def_cfa_offset 4
 3357               		.cfi_offset 13, -3
 3358 0004 EF92      		push r14
 3359               	.LCFI106:
 3360               		.cfi_def_cfa_offset 5
 3361               		.cfi_offset 14, -4
 3362 0006 FF92      		push r15
 3363               	.LCFI107:
 3364               		.cfi_def_cfa_offset 6
 3365               		.cfi_offset 15, -5
 3366 0008 0F93      		push r16
 3367               	.LCFI108:
 3368               		.cfi_def_cfa_offset 7
 3369               		.cfi_offset 16, -6
 3370 000a 1F93      		push r17
 3371               	.LCFI109:
 3372               		.cfi_def_cfa_offset 8
 3373               		.cfi_offset 17, -7
 3374 000c CF93      		push r28
 3375               	.LCFI110:
 3376               		.cfi_def_cfa_offset 9
 3377               		.cfi_offset 28, -8
 3378 000e DF93      		push r29
 3379               	.LCFI111:
 3380               		.cfi_def_cfa_offset 10
 3381               		.cfi_offset 29, -9
 3382               	/* prologue: function */
 3383               	/* frame size = 0 */
 3384               	/* stack size = 8 */
 3385               	.L__stack_usage = 8
 3386 0010 8B01      		movw r16,r22
 3387               	.LVL324:
  39:../../LUFA-Libs/Arduino_LUFA_Bootloader/LUFA/Drivers/USB/Core/AVR8/Template/Template_Endpoint_Control_W.c **** 	if (Length > USB_ControlRequest.wLength)
 3388               		.loc 4 39 0
 3389 0012 2091 0000 		lds r18,USB_ControlRequest+6
 3390 0016 3091 0000 		lds r19,USB_ControlRequest+6+1
 3391 001a 2617      		cp r18,r22
 3392 001c 3707      		cpc r19,r23
 3393 001e 00F4      		brsh .L266
 3394               	.LVL325:
 3395 0020 8901      		movw r16,r18
 3396               	.LVL326:
 3397               	.L268:
  39:../../LUFA-Libs/Arduino_LUFA_Bootloader/LUFA/Drivers/USB/Core/AVR8/Template/Template_Endpoint_Control_W.c **** 	if (Length > USB_ControlRequest.wLength)
 3398               		.loc 4 39 0 is_stmt 0 discriminator 1
 3399 0022 7C01      		movw r14,r24
 3400 0024 80E0      		ldi r24,lo8(0)
 3401               	.LVL327:
 3402 0026 00C0      		rjmp .L286
 3403               	.LVL328:
 3404               	.L266:
  41:../../LUFA-Libs/Arduino_LUFA_Bootloader/LUFA/Drivers/USB/Core/AVR8/Template/Template_Endpoint_Control_W.c **** 	else if (!(Length))
 3405               		.loc 4 41 0 is_stmt 1
 3406 0028 6115      		cp r22,__zero_reg__
 3407 002a 7105      		cpc r23,__zero_reg__
 3408 002c 01F4      		brne .L268
 3409               	.LBB450:
 3410               	.LBB451:
 516:../../LUFA-Libs/Arduino_LUFA_Bootloader/LUFA/Drivers/USB/Core/AVR8/../AVR8/../AVR8/Endpoint_AVR8.h **** 					UEINTX &= ~((1 << TXINI) | (1 << FIFOCON));
 3411               		.loc 2 516 0
 3412 002e 2091 E800 		lds r18,232
 3413 0032 2E77      		andi r18,lo8(126)
 3414 0034 2093 E800 		sts 232,r18
 3415 0038 00C0      		rjmp .L268
 3416               	.LVL329:
 3417               	.L276:
 3418               	.LBE451:
 3419               	.LBE450:
 3420               	.LBB452:
  46:../../LUFA-Libs/Arduino_LUFA_Bootloader/LUFA/Drivers/USB/Core/AVR8/Template/Template_Endpoint_Control_W.c **** 		uint8_t USB_DeviceState_LCL = USB_DeviceState;
 3421               		.loc 4 46 0
 3422 003a 9EB3      		in r25,62-32
 3423               	.LVL330:
  48:../../LUFA-Libs/Arduino_LUFA_Bootloader/LUFA/Drivers/USB/Core/AVR8/Template/Template_Endpoint_Control_W.c **** 		if (USB_DeviceState_LCL == DEVICE_STATE_Unattached)
 3424               		.loc 4 48 0
 3425 003c 9923      		tst r25
 3426 003e 01F4      		brne .+2
 3427 0040 00C0      		rjmp .L281
  50:../../LUFA-Libs/Arduino_LUFA_Bootloader/LUFA/Drivers/USB/Core/AVR8/Template/Template_Endpoint_Control_W.c **** 		else if (USB_DeviceState_LCL == DEVICE_STATE_Suspended)
 3428               		.loc 4 50 0
 3429 0042 9530      		cpi r25,lo8(5)
 3430 0044 01F4      		brne .+2
 3431 0046 00C0      		rjmp .L282
 3432               	.LBB453:
 3433               	.LBB454:
 491:../../LUFA-Libs/Arduino_LUFA_Bootloader/LUFA/Drivers/USB/Core/AVR8/../AVR8/../AVR8/Endpoint_AVR8.h **** 				return ((UEINTX & (1 << RXSTPI)) ? true : false);
 3434               		.loc 2 491 0
 3435 0048 9091 E800 		lds r25,232
 3436               	.LVL331:
 3437               	.LBE454:
 3438               	.LBE453:
  52:../../LUFA-Libs/Arduino_LUFA_Bootloader/LUFA/Drivers/USB/Core/AVR8/Template/Template_Endpoint_Control_W.c **** 		else if (Endpoint_IsSETUPReceived())
 3439               		.loc 4 52 0
 3440 004c 93FD      		sbrc r25,3
 3441 004e 00C0      		rjmp .L280
 3442               	.LBB455:
 3443               	.LBB456:
 479:../../LUFA-Libs/Arduino_LUFA_Bootloader/LUFA/Drivers/USB/Core/AVR8/../AVR8/../AVR8/Endpoint_AVR8.h **** 				return ((UEINTX & (1 << RXOUTI)) ? true : false);
 3444               		.loc 2 479 0
 3445 0050 9091 E800 		lds r25,232
 3446               	.LBE456:
 3447               	.LBE455:
  54:../../LUFA-Libs/Arduino_LUFA_Bootloader/LUFA/Drivers/USB/Core/AVR8/Template/Template_Endpoint_Control_W.c **** 		else if (Endpoint_IsOUTReceived())
 3448               		.loc 4 54 0
 3449 0054 92FD      		sbrc r25,2
 3450 0056 00C0      		rjmp .L284
 3451               	.LBB457:
 3452               	.LBB458:
 467:../../LUFA-Libs/Arduino_LUFA_Bootloader/LUFA/Drivers/USB/Core/AVR8/../AVR8/../AVR8/Endpoint_AVR8.h **** 				return ((UEINTX & (1 << TXINI)) ? true : false);
 3453               		.loc 2 467 0
 3454 0058 9091 E800 		lds r25,232
 3455               	.LBE458:
 3456               	.LBE457:
  57:../../LUFA-Libs/Arduino_LUFA_Bootloader/LUFA/Drivers/USB/Core/AVR8/Template/Template_Endpoint_Control_W.c **** 		if (Endpoint_IsINReady())
 3457               		.loc 4 57 0
 3458 005c 90FF      		sbrs r25,0
 3459 005e 00C0      		rjmp .L286
 3460               	.LBB459:
 3461               	.LBB460:
 3462               	.LBB461:
 295:../../LUFA-Libs/Arduino_LUFA_Bootloader/LUFA/Drivers/USB/Core/AVR8/../AVR8/../AVR8/Endpoint_AVR8.h **** 					return (((uint16_t)UEBCHX << 8) | UEBCLX);
 3463               		.loc 2 295 0
 3464 0060 8091 F300 		lds r24,243
 3465               	.LVL332:
 3466 0064 C091 F200 		lds r28,242
 3467 0068 D82E      		mov r13,r24
 3468 006a CC24      		clr r12
 3469 006c D0E0      		ldi r29,lo8(0)
 3470 006e CC29      		or r28,r12
 3471 0070 DD29      		or r29,r13
 3472               	.LBE461:
 3473               	.LBE460:
  61:../../LUFA-Libs/Arduino_LUFA_Bootloader/LUFA/Drivers/USB/Core/AVR8/Template/Template_Endpoint_Control_W.c **** 			while (Length && (BytesInEndpoint < USB_Device_ControlEndpointSize))
 3474               		.loc 4 61 0
 3475 0072 00C0      		rjmp .L272
 3476               	.LVL333:
 3477               	.L274:
  63:../../LUFA-Libs/Arduino_LUFA_Bootloader/LUFA/Drivers/USB/Core/AVR8/Template/Template_Endpoint_Control_W.c **** 				TEMPLATE_TRANSFER_BYTE(DataStream);
 3478               		.loc 4 63 0
 3479 0074 C701      		movw r24,r14
 3480 0076 0E94 0000 		call __eerd_byte_m32u4
 3481               	.LVL334:
 3482               	.LBB462:
 3483               	.LBB463:
 624:../../LUFA-Libs/Arduino_LUFA_Bootloader/LUFA/Drivers/USB/Core/AVR8/../AVR8/../AVR8/Endpoint_AVR8.h **** 				UEDATX = Data;
 3484               		.loc 2 624 0
 3485 007a 8093 F100 		sts 241,r24
 3486               	.LBE463:
 3487               	.LBE462:
  64:../../LUFA-Libs/Arduino_LUFA_Bootloader/LUFA/Drivers/USB/Core/AVR8/Template/Template_Endpoint_Control_W.c **** 				TEMPLATE_BUFFER_MOVE(DataStream, 1);
 3488               		.loc 4 64 0
 3489 007e 0894      		sec
 3490 0080 E11C      		adc r14,__zero_reg__
 3491 0082 F11C      		adc r15,__zero_reg__
 3492               	.LVL335:
  65:../../LUFA-Libs/Arduino_LUFA_Bootloader/LUFA/Drivers/USB/Core/AVR8/Template/Template_Endpoint_Control_W.c **** 				Length--;
 3493               		.loc 4 65 0
 3494 0084 0150      		subi r16,lo8(-(-1))
 3495 0086 1040      		sbci r17,hi8(-(-1))
 3496               	.LVL336:
  66:../../LUFA-Libs/Arduino_LUFA_Bootloader/LUFA/Drivers/USB/Core/AVR8/Template/Template_Endpoint_Control_W.c **** 				BytesInEndpoint++;
 3497               		.loc 4 66 0
 3498 0088 2196      		adiw r28,1
 3499               	.LVL337:
 3500               	.L272:
  61:../../LUFA-Libs/Arduino_LUFA_Bootloader/LUFA/Drivers/USB/Core/AVR8/Template/Template_Endpoint_Control_W.c **** 			while (Length && (BytesInEndpoint < USB_Device_ControlEndpointSize))
 3501               		.loc 4 61 0 discriminator 1
 3502 008a 0115      		cp r16,__zero_reg__
 3503 008c 1105      		cpc r17,__zero_reg__
 3504 008e 01F0      		breq .L273
  61:../../LUFA-Libs/Arduino_LUFA_Bootloader/LUFA/Drivers/USB/Core/AVR8/Template/Template_Endpoint_Control_W.c **** 			while (Length && (BytesInEndpoint < USB_Device_ControlEndpointSize))
 3505               		.loc 4 61 0 is_stmt 0 discriminator 2
 3506 0090 C830      		cpi r28,8
 3507 0092 D105      		cpc r29,__zero_reg__
 3508 0094 00F0      		brlo .L274
 3509               	.L273:
  69:../../LUFA-Libs/Arduino_LUFA_Bootloader/LUFA/Drivers/USB/Core/AVR8/Template/Template_Endpoint_Control_W.c **** 			LastPacketFull = (BytesInEndpoint == USB_Device_ControlEndpointSize);
 3510               		.loc 4 69 0 is_stmt 1
 3511 0096 81E0      		ldi r24,lo8(1)
 3512 0098 C830      		cpi r28,8
 3513 009a D105      		cpc r29,__zero_reg__
 3514 009c 01F0      		breq .L275
 3515 009e 80E0      		ldi r24,lo8(0)
 3516               	.L275:
 3517               	.LVL338:
 3518               	.LBB464:
 3519               	.LBB465:
 516:../../LUFA-Libs/Arduino_LUFA_Bootloader/LUFA/Drivers/USB/Core/AVR8/../AVR8/../AVR8/Endpoint_AVR8.h **** 					UEINTX &= ~((1 << TXINI) | (1 << FIFOCON));
 3520               		.loc 2 516 0
 3521 00a0 9091 E800 		lds r25,232
 3522 00a4 9E77      		andi r25,lo8(126)
 3523 00a6 9093 E800 		sts 232,r25
 3524               	.LVL339:
 3525               	.L286:
 3526               	.LBE465:
 3527               	.LBE464:
 3528               	.LBE459:
 3529               	.LBE452:
  44:../../LUFA-Libs/Arduino_LUFA_Bootloader/LUFA/Drivers/USB/Core/AVR8/Template/Template_Endpoint_Control_W.c **** 	while (Length || LastPacketFull)
 3530               		.loc 4 44 0 discriminator 1
 3531 00aa 0115      		cp r16,__zero_reg__
 3532 00ac 1105      		cpc r17,__zero_reg__
 3533 00ae 01F4      		brne .L276
  44:../../LUFA-Libs/Arduino_LUFA_Bootloader/LUFA/Drivers/USB/Core/AVR8/Template/Template_Endpoint_Control_W.c **** 	while (Length || LastPacketFull)
 3534               		.loc 4 44 0 is_stmt 0 discriminator 2
 3535 00b0 8823      		tst r24
 3536 00b2 01F4      		brne .L276
 3537 00b4 00C0      		rjmp .L284
 3538               	.LVL340:
 3539               	.L277:
 3540               	.LBB466:
  76:../../LUFA-Libs/Arduino_LUFA_Bootloader/LUFA/Drivers/USB/Core/AVR8/Template/Template_Endpoint_Control_W.c **** 		uint8_t USB_DeviceState_LCL = USB_DeviceState;
 3541               		.loc 4 76 0 is_stmt 1
 3542 00b6 8EB3      		in r24,62-32
 3543               	.LVL341:
  78:../../LUFA-Libs/Arduino_LUFA_Bootloader/LUFA/Drivers/USB/Core/AVR8/Template/Template_Endpoint_Control_W.c **** 		if (USB_DeviceState_LCL == DEVICE_STATE_Unattached)
 3544               		.loc 4 78 0
 3545 00b8 8823      		tst r24
 3546 00ba 01F0      		breq .L281
  80:../../LUFA-Libs/Arduino_LUFA_Bootloader/LUFA/Drivers/USB/Core/AVR8/Template/Template_Endpoint_Control_W.c **** 		else if (USB_DeviceState_LCL == DEVICE_STATE_Suspended)
 3547               		.loc 4 80 0
 3548 00bc 8530      		cpi r24,lo8(5)
 3549 00be 01F0      		breq .L282
 3550               	.LVL342:
 3551               	.L284:
 3552               	.LBE466:
 3553               	.LBB467:
 3554               	.LBB468:
 479:../../LUFA-Libs/Arduino_LUFA_Bootloader/LUFA/Drivers/USB/Core/AVR8/../AVR8/../AVR8/Endpoint_AVR8.h **** 				return ((UEINTX & (1 << RXOUTI)) ? true : false);
 3555               		.loc 2 479 0 discriminator 1
 3556 00c0 8091 E800 		lds r24,232
 3557               	.LBE468:
 3558               	.LBE467:
  74:../../LUFA-Libs/Arduino_LUFA_Bootloader/LUFA/Drivers/USB/Core/AVR8/Template/Template_Endpoint_Control_W.c **** 	while (!(Endpoint_IsOUTReceived()))
 3559               		.loc 4 74 0 discriminator 1
 3560 00c4 82FF      		sbrs r24,2
 3561 00c6 00C0      		rjmp .L277
  84:../../LUFA-Libs/Arduino_LUFA_Bootloader/LUFA/Drivers/USB/Core/AVR8/Template/Template_Endpoint_Control_W.c **** 	return ENDPOINT_RWCSTREAM_NoError;
 3562               		.loc 4 84 0
 3563 00c8 80E0      		ldi r24,lo8(0)
 3564 00ca 00C0      		rjmp .L269
 3565               	.LVL343:
 3566               	.L280:
 3567               	.LBB469:
  53:../../LUFA-Libs/Arduino_LUFA_Bootloader/LUFA/Drivers/USB/Core/AVR8/Template/Template_Endpoint_Control_W.c **** 		  return ENDPOINT_RWCSTREAM_HostAborted;
 3568               		.loc 4 53 0
 3569 00cc 81E0      		ldi r24,lo8(1)
 3570               	.LVL344:
 3571 00ce 00C0      		rjmp .L269
 3572               	.L281:
 3573               	.LBE469:
 3574               	.LBB470:
  79:../../LUFA-Libs/Arduino_LUFA_Bootloader/LUFA/Drivers/USB/Core/AVR8/Template/Template_Endpoint_Control_W.c **** 		  return ENDPOINT_RWCSTREAM_DeviceDisconnected;
 3575               		.loc 4 79 0
 3576 00d0 82E0      		ldi r24,lo8(2)
 3577 00d2 00C0      		rjmp .L269
 3578               	.L282:
  81:../../LUFA-Libs/Arduino_LUFA_Bootloader/LUFA/Drivers/USB/Core/AVR8/Template/Template_Endpoint_Control_W.c **** 		  return ENDPOINT_RWCSTREAM_BusSuspended;
 3579               		.loc 4 81 0
 3580 00d4 83E0      		ldi r24,lo8(3)
 3581               	.L269:
 3582               	/* epilogue start */
 3583               	.LBE470:
 3584               		.loc 4 85 0
 3585 00d6 DF91      		pop r29
 3586 00d8 CF91      		pop r28
 3587 00da 1F91      		pop r17
 3588 00dc 0F91      		pop r16
 3589               	.LVL345:
 3590 00de FF90      		pop r15
 3591 00e0 EF90      		pop r14
 3592               	.LVL346:
 3593 00e2 DF90      		pop r13
 3594 00e4 CF90      		pop r12
 3595 00e6 0895      		ret
 3596               		.cfi_endproc
 3597               	.LFE99:
 3599               		.section	.text.Endpoint_Write_Control_EStream_BE,"ax",@progbits
 3600               	.global	Endpoint_Write_Control_EStream_BE
 3602               	Endpoint_Write_Control_EStream_BE:
 3603               	.LFB100:
  35:../../LUFA-Libs/Arduino_LUFA_Bootloader/LUFA/Drivers/USB/Core/AVR8/Template/Template_Endpoint_Control_W.c **** {
 3604               		.loc 4 35 0
 3605               		.cfi_startproc
 3606               	.LVL347:
 3607 0000 CF92      		push r12
 3608               	.LCFI112:
 3609               		.cfi_def_cfa_offset 3
 3610               		.cfi_offset 12, -2
 3611 0002 DF92      		push r13
 3612               	.LCFI113:
 3613               		.cfi_def_cfa_offset 4
 3614               		.cfi_offset 13, -3
 3615 0004 EF92      		push r14
 3616               	.LCFI114:
 3617               		.cfi_def_cfa_offset 5
 3618               		.cfi_offset 14, -4
 3619 0006 FF92      		push r15
 3620               	.LCFI115:
 3621               		.cfi_def_cfa_offset 6
 3622               		.cfi_offset 15, -5
 3623 0008 0F93      		push r16
 3624               	.LCFI116:
 3625               		.cfi_def_cfa_offset 7
 3626               		.cfi_offset 16, -6
 3627 000a 1F93      		push r17
 3628               	.LCFI117:
 3629               		.cfi_def_cfa_offset 8
 3630               		.cfi_offset 17, -7
 3631 000c CF93      		push r28
 3632               	.LCFI118:
 3633               		.cfi_def_cfa_offset 9
 3634               		.cfi_offset 28, -8
 3635 000e DF93      		push r29
 3636               	.LCFI119:
 3637               		.cfi_def_cfa_offset 10
 3638               		.cfi_offset 29, -9
 3639               	/* prologue: function */
 3640               	/* frame size = 0 */
 3641               	/* stack size = 8 */
 3642               	.L__stack_usage = 8
 3643 0010 8B01      		movw r16,r22
  36:../../LUFA-Libs/Arduino_LUFA_Bootloader/LUFA/Drivers/USB/Core/AVR8/Template/Template_Endpoint_Control_W.c **** 	uint8_t* DataStream     = ((uint8_t*)Buffer + TEMPLATE_BUFFER_OFFSET(Length));
 3644               		.loc 4 36 0
 3645 0012 7B01      		movw r14,r22
 3646 0014 0894      		sec
 3647 0016 E108      		sbc r14,__zero_reg__
 3648 0018 F108      		sbc r15,__zero_reg__
 3649 001a E80E      		add r14,r24
 3650 001c F91E      		adc r15,r25
 3651               	.LVL348:
  39:../../LUFA-Libs/Arduino_LUFA_Bootloader/LUFA/Drivers/USB/Core/AVR8/Template/Template_Endpoint_Control_W.c **** 	if (Length > USB_ControlRequest.wLength)
 3652               		.loc 4 39 0
 3653 001e 8091 0000 		lds r24,USB_ControlRequest+6
 3654 0022 9091 0000 		lds r25,USB_ControlRequest+6+1
 3655               	.LVL349:
 3656 0026 8617      		cp r24,r22
 3657 0028 9707      		cpc r25,r23
 3658 002a 00F4      		brsh .L288
 3659               	.LVL350:
 3660 002c 8C01      		movw r16,r24
 3661               	.LVL351:
 3662               	.L290:
  39:../../LUFA-Libs/Arduino_LUFA_Bootloader/LUFA/Drivers/USB/Core/AVR8/Template/Template_Endpoint_Control_W.c **** 	if (Length > USB_ControlRequest.wLength)
 3663               		.loc 4 39 0 is_stmt 0 discriminator 1
 3664 002e 80E0      		ldi r24,lo8(0)
 3665 0030 00C0      		rjmp .L308
 3666               	.L288:
  41:../../LUFA-Libs/Arduino_LUFA_Bootloader/LUFA/Drivers/USB/Core/AVR8/Template/Template_Endpoint_Control_W.c **** 	else if (!(Length))
 3667               		.loc 4 41 0 is_stmt 1
 3668 0032 6115      		cp r22,__zero_reg__
 3669 0034 7105      		cpc r23,__zero_reg__
 3670 0036 01F4      		brne .L290
 3671               	.LBB471:
 3672               	.LBB472:
 516:../../LUFA-Libs/Arduino_LUFA_Bootloader/LUFA/Drivers/USB/Core/AVR8/../AVR8/../AVR8/Endpoint_AVR8.h **** 					UEINTX &= ~((1 << TXINI) | (1 << FIFOCON));
 3673               		.loc 2 516 0
 3674 0038 8091 E800 		lds r24,232
 3675 003c 8E77      		andi r24,lo8(126)
 3676 003e 8093 E800 		sts 232,r24
 3677 0042 00C0      		rjmp .L290
 3678               	.LVL352:
 3679               	.L298:
 3680               	.LBE472:
 3681               	.LBE471:
 3682               	.LBB473:
  46:../../LUFA-Libs/Arduino_LUFA_Bootloader/LUFA/Drivers/USB/Core/AVR8/Template/Template_Endpoint_Control_W.c **** 		uint8_t USB_DeviceState_LCL = USB_DeviceState;
 3683               		.loc 4 46 0
 3684 0044 9EB3      		in r25,62-32
 3685               	.LVL353:
  48:../../LUFA-Libs/Arduino_LUFA_Bootloader/LUFA/Drivers/USB/Core/AVR8/Template/Template_Endpoint_Control_W.c **** 		if (USB_DeviceState_LCL == DEVICE_STATE_Unattached)
 3686               		.loc 4 48 0
 3687 0046 9923      		tst r25
 3688 0048 01F4      		brne .+2
 3689 004a 00C0      		rjmp .L303
  50:../../LUFA-Libs/Arduino_LUFA_Bootloader/LUFA/Drivers/USB/Core/AVR8/Template/Template_Endpoint_Control_W.c **** 		else if (USB_DeviceState_LCL == DEVICE_STATE_Suspended)
 3690               		.loc 4 50 0
 3691 004c 9530      		cpi r25,lo8(5)
 3692 004e 01F4      		brne .+2
 3693 0050 00C0      		rjmp .L304
 3694               	.LBB474:
 3695               	.LBB475:
 491:../../LUFA-Libs/Arduino_LUFA_Bootloader/LUFA/Drivers/USB/Core/AVR8/../AVR8/../AVR8/Endpoint_AVR8.h **** 				return ((UEINTX & (1 << RXSTPI)) ? true : false);
 3696               		.loc 2 491 0
 3697 0052 9091 E800 		lds r25,232
 3698               	.LVL354:
 3699               	.LBE475:
 3700               	.LBE474:
  52:../../LUFA-Libs/Arduino_LUFA_Bootloader/LUFA/Drivers/USB/Core/AVR8/Template/Template_Endpoint_Control_W.c **** 		else if (Endpoint_IsSETUPReceived())
 3701               		.loc 4 52 0
 3702 0056 93FD      		sbrc r25,3
 3703 0058 00C0      		rjmp .L302
 3704               	.LBB476:
 3705               	.LBB477:
 479:../../LUFA-Libs/Arduino_LUFA_Bootloader/LUFA/Drivers/USB/Core/AVR8/../AVR8/../AVR8/Endpoint_AVR8.h **** 				return ((UEINTX & (1 << RXOUTI)) ? true : false);
 3706               		.loc 2 479 0
 3707 005a 9091 E800 		lds r25,232
 3708               	.LBE477:
 3709               	.LBE476:
  54:../../LUFA-Libs/Arduino_LUFA_Bootloader/LUFA/Drivers/USB/Core/AVR8/Template/Template_Endpoint_Control_W.c **** 		else if (Endpoint_IsOUTReceived())
 3710               		.loc 4 54 0
 3711 005e 92FD      		sbrc r25,2
 3712 0060 00C0      		rjmp .L306
 3713               	.LBB478:
 3714               	.LBB479:
 467:../../LUFA-Libs/Arduino_LUFA_Bootloader/LUFA/Drivers/USB/Core/AVR8/../AVR8/../AVR8/Endpoint_AVR8.h **** 				return ((UEINTX & (1 << TXINI)) ? true : false);
 3715               		.loc 2 467 0
 3716 0062 9091 E800 		lds r25,232
 3717               	.LBE479:
 3718               	.LBE478:
  57:../../LUFA-Libs/Arduino_LUFA_Bootloader/LUFA/Drivers/USB/Core/AVR8/Template/Template_Endpoint_Control_W.c **** 		if (Endpoint_IsINReady())
 3719               		.loc 4 57 0
 3720 0066 90FF      		sbrs r25,0
 3721 0068 00C0      		rjmp .L308
 3722               	.LBB480:
 3723               	.LBB481:
 3724               	.LBB482:
 295:../../LUFA-Libs/Arduino_LUFA_Bootloader/LUFA/Drivers/USB/Core/AVR8/../AVR8/../AVR8/Endpoint_AVR8.h **** 					return (((uint16_t)UEBCHX << 8) | UEBCLX);
 3725               		.loc 2 295 0
 3726 006a 8091 F300 		lds r24,243
 3727               	.LVL355:
 3728 006e C091 F200 		lds r28,242
 3729 0072 D82E      		mov r13,r24
 3730 0074 CC24      		clr r12
 3731 0076 D0E0      		ldi r29,lo8(0)
 3732 0078 CC29      		or r28,r12
 3733 007a DD29      		or r29,r13
 3734               	.LBE482:
 3735               	.LBE481:
  61:../../LUFA-Libs/Arduino_LUFA_Bootloader/LUFA/Drivers/USB/Core/AVR8/Template/Template_Endpoint_Control_W.c **** 			while (Length && (BytesInEndpoint < USB_Device_ControlEndpointSize))
 3736               		.loc 4 61 0
 3737 007c 00C0      		rjmp .L294
 3738               	.LVL356:
 3739               	.L296:
  63:../../LUFA-Libs/Arduino_LUFA_Bootloader/LUFA/Drivers/USB/Core/AVR8/Template/Template_Endpoint_Control_W.c **** 				TEMPLATE_TRANSFER_BYTE(DataStream);
 3740               		.loc 4 63 0
 3741 007e C701      		movw r24,r14
 3742 0080 0E94 0000 		call __eerd_byte_m32u4
 3743               	.LVL357:
 3744               	.LBB483:
 3745               	.LBB484:
 624:../../LUFA-Libs/Arduino_LUFA_Bootloader/LUFA/Drivers/USB/Core/AVR8/../AVR8/../AVR8/Endpoint_AVR8.h **** 				UEDATX = Data;
 3746               		.loc 2 624 0
 3747 0084 8093 F100 		sts 241,r24
 3748               	.LBE484:
 3749               	.LBE483:
  64:../../LUFA-Libs/Arduino_LUFA_Bootloader/LUFA/Drivers/USB/Core/AVR8/Template/Template_Endpoint_Control_W.c **** 				TEMPLATE_BUFFER_MOVE(DataStream, 1);
 3750               		.loc 4 64 0
 3751 0088 0894      		sec
 3752 008a E108      		sbc r14,__zero_reg__
 3753 008c F108      		sbc r15,__zero_reg__
 3754               	.LVL358:
  65:../../LUFA-Libs/Arduino_LUFA_Bootloader/LUFA/Drivers/USB/Core/AVR8/Template/Template_Endpoint_Control_W.c **** 				Length--;
 3755               		.loc 4 65 0
 3756 008e 0150      		subi r16,lo8(-(-1))
 3757 0090 1040      		sbci r17,hi8(-(-1))
 3758               	.LVL359:
  66:../../LUFA-Libs/Arduino_LUFA_Bootloader/LUFA/Drivers/USB/Core/AVR8/Template/Template_Endpoint_Control_W.c **** 				BytesInEndpoint++;
 3759               		.loc 4 66 0
 3760 0092 2196      		adiw r28,1
 3761               	.LVL360:
 3762               	.L294:
  61:../../LUFA-Libs/Arduino_LUFA_Bootloader/LUFA/Drivers/USB/Core/AVR8/Template/Template_Endpoint_Control_W.c **** 			while (Length && (BytesInEndpoint < USB_Device_ControlEndpointSize))
 3763               		.loc 4 61 0 discriminator 1
 3764 0094 0115      		cp r16,__zero_reg__
 3765 0096 1105      		cpc r17,__zero_reg__
 3766 0098 01F0      		breq .L295
  61:../../LUFA-Libs/Arduino_LUFA_Bootloader/LUFA/Drivers/USB/Core/AVR8/Template/Template_Endpoint_Control_W.c **** 			while (Length && (BytesInEndpoint < USB_Device_ControlEndpointSize))
 3767               		.loc 4 61 0 is_stmt 0 discriminator 2
 3768 009a C830      		cpi r28,8
 3769 009c D105      		cpc r29,__zero_reg__
 3770 009e 00F0      		brlo .L296
 3771               	.L295:
  69:../../LUFA-Libs/Arduino_LUFA_Bootloader/LUFA/Drivers/USB/Core/AVR8/Template/Template_Endpoint_Control_W.c **** 			LastPacketFull = (BytesInEndpoint == USB_Device_ControlEndpointSize);
 3772               		.loc 4 69 0 is_stmt 1
 3773 00a0 81E0      		ldi r24,lo8(1)
 3774 00a2 C830      		cpi r28,8
 3775 00a4 D105      		cpc r29,__zero_reg__
 3776 00a6 01F0      		breq .L297
 3777 00a8 80E0      		ldi r24,lo8(0)
 3778               	.L297:
 3779               	.LVL361:
 3780               	.LBB485:
 3781               	.LBB486:
 516:../../LUFA-Libs/Arduino_LUFA_Bootloader/LUFA/Drivers/USB/Core/AVR8/../AVR8/../AVR8/Endpoint_AVR8.h **** 					UEINTX &= ~((1 << TXINI) | (1 << FIFOCON));
 3782               		.loc 2 516 0
 3783 00aa 9091 E800 		lds r25,232
 3784 00ae 9E77      		andi r25,lo8(126)
 3785 00b0 9093 E800 		sts 232,r25
 3786               	.LVL362:
 3787               	.L308:
 3788               	.LBE486:
 3789               	.LBE485:
 3790               	.LBE480:
 3791               	.LBE473:
  44:../../LUFA-Libs/Arduino_LUFA_Bootloader/LUFA/Drivers/USB/Core/AVR8/Template/Template_Endpoint_Control_W.c **** 	while (Length || LastPacketFull)
 3792               		.loc 4 44 0 discriminator 1
 3793 00b4 0115      		cp r16,__zero_reg__
 3794 00b6 1105      		cpc r17,__zero_reg__
 3795 00b8 01F4      		brne .L298
  44:../../LUFA-Libs/Arduino_LUFA_Bootloader/LUFA/Drivers/USB/Core/AVR8/Template/Template_Endpoint_Control_W.c **** 	while (Length || LastPacketFull)
 3796               		.loc 4 44 0 is_stmt 0 discriminator 2
 3797 00ba 8823      		tst r24
 3798 00bc 01F4      		brne .L298
 3799 00be 00C0      		rjmp .L306
 3800               	.LVL363:
 3801               	.L299:
 3802               	.LBB487:
  76:../../LUFA-Libs/Arduino_LUFA_Bootloader/LUFA/Drivers/USB/Core/AVR8/Template/Template_Endpoint_Control_W.c **** 		uint8_t USB_DeviceState_LCL = USB_DeviceState;
 3803               		.loc 4 76 0 is_stmt 1
 3804 00c0 8EB3      		in r24,62-32
 3805               	.LVL364:
  78:../../LUFA-Libs/Arduino_LUFA_Bootloader/LUFA/Drivers/USB/Core/AVR8/Template/Template_Endpoint_Control_W.c **** 		if (USB_DeviceState_LCL == DEVICE_STATE_Unattached)
 3806               		.loc 4 78 0
 3807 00c2 8823      		tst r24
 3808 00c4 01F0      		breq .L303
  80:../../LUFA-Libs/Arduino_LUFA_Bootloader/LUFA/Drivers/USB/Core/AVR8/Template/Template_Endpoint_Control_W.c **** 		else if (USB_DeviceState_LCL == DEVICE_STATE_Suspended)
 3809               		.loc 4 80 0
 3810 00c6 8530      		cpi r24,lo8(5)
 3811 00c8 01F0      		breq .L304
 3812               	.LVL365:
 3813               	.L306:
 3814               	.LBE487:
 3815               	.LBB488:
 3816               	.LBB489:
 479:../../LUFA-Libs/Arduino_LUFA_Bootloader/LUFA/Drivers/USB/Core/AVR8/../AVR8/../AVR8/Endpoint_AVR8.h **** 				return ((UEINTX & (1 << RXOUTI)) ? true : false);
 3817               		.loc 2 479 0 discriminator 1
 3818 00ca 8091 E800 		lds r24,232
 3819               	.LBE489:
 3820               	.LBE488:
  74:../../LUFA-Libs/Arduino_LUFA_Bootloader/LUFA/Drivers/USB/Core/AVR8/Template/Template_Endpoint_Control_W.c **** 	while (!(Endpoint_IsOUTReceived()))
 3821               		.loc 4 74 0 discriminator 1
 3822 00ce 82FF      		sbrs r24,2
 3823 00d0 00C0      		rjmp .L299
  84:../../LUFA-Libs/Arduino_LUFA_Bootloader/LUFA/Drivers/USB/Core/AVR8/Template/Template_Endpoint_Control_W.c **** 	return ENDPOINT_RWCSTREAM_NoError;
 3824               		.loc 4 84 0
 3825 00d2 80E0      		ldi r24,lo8(0)
 3826 00d4 00C0      		rjmp .L291
 3827               	.LVL366:
 3828               	.L302:
 3829               	.LBB490:
  53:../../LUFA-Libs/Arduino_LUFA_Bootloader/LUFA/Drivers/USB/Core/AVR8/Template/Template_Endpoint_Control_W.c **** 		  return ENDPOINT_RWCSTREAM_HostAborted;
 3830               		.loc 4 53 0
 3831 00d6 81E0      		ldi r24,lo8(1)
 3832               	.LVL367:
 3833 00d8 00C0      		rjmp .L291
 3834               	.L303:
 3835               	.LBE490:
 3836               	.LBB491:
  79:../../LUFA-Libs/Arduino_LUFA_Bootloader/LUFA/Drivers/USB/Core/AVR8/Template/Template_Endpoint_Control_W.c **** 		  return ENDPOINT_RWCSTREAM_DeviceDisconnected;
 3837               		.loc 4 79 0
 3838 00da 82E0      		ldi r24,lo8(2)
 3839 00dc 00C0      		rjmp .L291
 3840               	.L304:
  81:../../LUFA-Libs/Arduino_LUFA_Bootloader/LUFA/Drivers/USB/Core/AVR8/Template/Template_Endpoint_Control_W.c **** 		  return ENDPOINT_RWCSTREAM_BusSuspended;
 3841               		.loc 4 81 0
 3842 00de 83E0      		ldi r24,lo8(3)
 3843               	.L291:
 3844               	/* epilogue start */
 3845               	.LBE491:
 3846               		.loc 4 85 0
 3847 00e0 DF91      		pop r29
 3848 00e2 CF91      		pop r28
 3849 00e4 1F91      		pop r17
 3850 00e6 0F91      		pop r16
 3851               	.LVL368:
 3852 00e8 FF90      		pop r15
 3853 00ea EF90      		pop r14
 3854               	.LVL369:
 3855 00ec DF90      		pop r13
 3856 00ee CF90      		pop r12
 3857 00f0 0895      		ret
 3858               		.cfi_endproc
 3859               	.LFE100:
 3861               		.section	.text.Endpoint_Read_Control_EStream_LE,"ax",@progbits
 3862               	.global	Endpoint_Read_Control_EStream_LE
 3864               	Endpoint_Read_Control_EStream_LE:
 3865               	.LFB101:
  35:../../LUFA-Libs/Arduino_LUFA_Bootloader/LUFA/Drivers/USB/Core/AVR8/Template/Template_Endpoint_Control_R.c **** {
 3866               		.loc 5 35 0
 3867               		.cfi_startproc
 3868               	.LVL370:
 3869 0000 EF92      		push r14
 3870               	.LCFI120:
 3871               		.cfi_def_cfa_offset 3
 3872               		.cfi_offset 14, -2
 3873 0002 FF92      		push r15
 3874               	.LCFI121:
 3875               		.cfi_def_cfa_offset 4
 3876               		.cfi_offset 15, -3
 3877 0004 0F93      		push r16
 3878               	.LCFI122:
 3879               		.cfi_def_cfa_offset 5
 3880               		.cfi_offset 16, -4
 3881 0006 1F93      		push r17
 3882               	.LCFI123:
 3883               		.cfi_def_cfa_offset 6
 3884               		.cfi_offset 17, -5
 3885 0008 CF93      		push r28
 3886               	.LCFI124:
 3887               		.cfi_def_cfa_offset 7
 3888               		.cfi_offset 28, -6
 3889 000a DF93      		push r29
 3890               	.LCFI125:
 3891               		.cfi_def_cfa_offset 8
 3892               		.cfi_offset 29, -7
 3893               	/* prologue: function */
 3894               	/* frame size = 0 */
 3895               	/* stack size = 6 */
 3896               	.L__stack_usage = 6
 3897 000c EB01      		movw r28,r22
 3898               	.LVL371:
  38:../../LUFA-Libs/Arduino_LUFA_Bootloader/LUFA/Drivers/USB/Core/AVR8/Template/Template_Endpoint_Control_R.c **** 	if (!(Length))
 3899               		.loc 5 38 0
 3900 000e 2097      		sbiw r28,0
 3901 0010 01F4      		brne .L310
 3902               	.LBB492:
 3903               	.LBB493:
 531:../../LUFA-Libs/Arduino_LUFA_Bootloader/LUFA/Drivers/USB/Core/AVR8/../AVR8/../AVR8/Endpoint_AVR8.h **** 					UEINTX &= ~((1 << RXOUTI) | (1 << FIFOCON));
 3904               		.loc 2 531 0
 3905 0012 2091 E800 		lds r18,232
 3906 0016 2B77      		andi r18,lo8(123)
 3907 0018 2093 E800 		sts 232,r18
 3908               	.L310:
 3909               	.LBE493:
 3910               	.LBE492:
  35:../../LUFA-Libs/Arduino_LUFA_Bootloader/LUFA/Drivers/USB/Core/AVR8/Template/Template_Endpoint_Control_R.c **** {
 3911               		.loc 5 35 0 discriminator 1
 3912 001c 8C01      		movw r16,r24
 3913 001e 00C0      		rjmp .L311
 3914               	.LVL372:
 3915               	.L327:
 3916               	.LBB494:
  43:../../LUFA-Libs/Arduino_LUFA_Bootloader/LUFA/Drivers/USB/Core/AVR8/Template/Template_Endpoint_Control_R.c **** 		uint8_t USB_DeviceState_LCL = USB_DeviceState;
 3917               		.loc 5 43 0
 3918 0020 8EB3      		in r24,62-32
 3919               	.LVL373:
  45:../../LUFA-Libs/Arduino_LUFA_Bootloader/LUFA/Drivers/USB/Core/AVR8/Template/Template_Endpoint_Control_R.c **** 		if (USB_DeviceState_LCL == DEVICE_STATE_Unattached)
 3920               		.loc 5 45 0
 3921 0022 8823      		tst r24
 3922 0024 01F0      		breq .L323
  47:../../LUFA-Libs/Arduino_LUFA_Bootloader/LUFA/Drivers/USB/Core/AVR8/Template/Template_Endpoint_Control_R.c **** 		else if (USB_DeviceState_LCL == DEVICE_STATE_Suspended)
 3923               		.loc 5 47 0
 3924 0026 8530      		cpi r24,lo8(5)
 3925 0028 01F0      		breq .L324
 3926               	.LBB495:
 3927               	.LBB496:
 491:../../LUFA-Libs/Arduino_LUFA_Bootloader/LUFA/Drivers/USB/Core/AVR8/../AVR8/../AVR8/Endpoint_AVR8.h **** 				return ((UEINTX & (1 << RXSTPI)) ? true : false);
 3928               		.loc 2 491 0
 3929 002a 8091 E800 		lds r24,232
 3930               	.LVL374:
 3931               	.LBE496:
 3932               	.LBE495:
  49:../../LUFA-Libs/Arduino_LUFA_Bootloader/LUFA/Drivers/USB/Core/AVR8/Template/Template_Endpoint_Control_R.c **** 		else if (Endpoint_IsSETUPReceived())
 3933               		.loc 5 49 0
 3934 002e 83FD      		sbrc r24,3
 3935 0030 00C0      		rjmp .L322
 3936               	.LBB497:
 3937               	.LBB498:
 479:../../LUFA-Libs/Arduino_LUFA_Bootloader/LUFA/Drivers/USB/Core/AVR8/../AVR8/../AVR8/Endpoint_AVR8.h **** 				return ((UEINTX & (1 << RXOUTI)) ? true : false);
 3938               		.loc 2 479 0
 3939 0032 8091 E800 		lds r24,232
 3940               	.LBE498:
 3941               	.LBE497:
  52:../../LUFA-Libs/Arduino_LUFA_Bootloader/LUFA/Drivers/USB/Core/AVR8/Template/Template_Endpoint_Control_R.c **** 		if (Endpoint_IsOUTReceived())
 3942               		.loc 5 52 0
 3943 0036 82FF      		sbrs r24,2
 3944 0038 00C0      		rjmp .L327
 3945 003a 00C0      		rjmp .L325
 3946               	.L317:
 3947               	.LBB499:
 3948               	.LBB500:
 612:../../LUFA-Libs/Arduino_LUFA_Bootloader/LUFA/Drivers/USB/Core/AVR8/../AVR8/../AVR8/Endpoint_AVR8.h **** 				return UEDATX;
 3949               		.loc 2 612 0
 3950 003c 6091 F100 		lds r22,241
 3951               	.LBE500:
 3952               	.LBE499:
  56:../../LUFA-Libs/Arduino_LUFA_Bootloader/LUFA/Drivers/USB/Core/AVR8/Template/Template_Endpoint_Control_R.c **** 				TEMPLATE_TRANSFER_BYTE(DataStream);
 3953               		.loc 5 56 0
 3954 0040 C801      		movw r24,r16
 3955 0042 0E94 0000 		call __eeupd_byte_m32u4
  57:../../LUFA-Libs/Arduino_LUFA_Bootloader/LUFA/Drivers/USB/Core/AVR8/Template/Template_Endpoint_Control_R.c **** 				TEMPLATE_BUFFER_MOVE(DataStream, 1);
 3956               		.loc 5 57 0
 3957 0046 0F5F      		subi r16,lo8(-(1))
 3958 0048 1F4F      		sbci r17,hi8(-(1))
 3959               	.LVL375:
  58:../../LUFA-Libs/Arduino_LUFA_Bootloader/LUFA/Drivers/USB/Core/AVR8/Template/Template_Endpoint_Control_R.c **** 				Length--;
 3960               		.loc 5 58 0
 3961 004a 2197      		sbiw r28,1
 3962               	.LVL376:
  54:../../LUFA-Libs/Arduino_LUFA_Bootloader/LUFA/Drivers/USB/Core/AVR8/Template/Template_Endpoint_Control_R.c **** 			while (Length && Endpoint_BytesInEndpoint())
 3963               		.loc 5 54 0
 3964 004c 01F0      		breq .L316
 3965               	.L325:
 3966               	.LBB501:
 3967               	.LBB502:
 295:../../LUFA-Libs/Arduino_LUFA_Bootloader/LUFA/Drivers/USB/Core/AVR8/../AVR8/../AVR8/Endpoint_AVR8.h **** 					return (((uint16_t)UEBCHX << 8) | UEBCLX);
 3968               		.loc 2 295 0
 3969 004e 9091 F300 		lds r25,243
 3970 0052 8091 F200 		lds r24,242
 3971 0056 F92E      		mov r15,r25
 3972 0058 EE24      		clr r14
 3973 005a 90E0      		ldi r25,lo8(0)
 3974 005c 8E29      		or r24,r14
 3975 005e 9F29      		or r25,r15
 3976               	.LBE502:
 3977               	.LBE501:
  54:../../LUFA-Libs/Arduino_LUFA_Bootloader/LUFA/Drivers/USB/Core/AVR8/Template/Template_Endpoint_Control_R.c **** 			while (Length && Endpoint_BytesInEndpoint())
 3978               		.loc 5 54 0
 3979 0060 0097      		sbiw r24,0
 3980 0062 01F4      		brne .L317
 3981               	.L316:
 3982               	.LBB503:
 3983               	.LBB504:
 531:../../LUFA-Libs/Arduino_LUFA_Bootloader/LUFA/Drivers/USB/Core/AVR8/../AVR8/../AVR8/Endpoint_AVR8.h **** 					UEINTX &= ~((1 << RXOUTI) | (1 << FIFOCON));
 3984               		.loc 2 531 0
 3985 0064 8091 E800 		lds r24,232
 3986 0068 8B77      		andi r24,lo8(123)
 3987 006a 8093 E800 		sts 232,r24
 3988               	.LVL377:
 3989               	.L311:
 3990               	.LBE504:
 3991               	.LBE503:
 3992               	.LBE494:
  41:../../LUFA-Libs/Arduino_LUFA_Bootloader/LUFA/Drivers/USB/Core/AVR8/Template/Template_Endpoint_Control_R.c **** 	while (Length)
 3993               		.loc 5 41 0 discriminator 1
 3994 006e 2097      		sbiw r28,0
 3995 0070 01F4      		brne .L327
 3996 0072 00C0      		rjmp .L328
 3997               	.L319:
 3998               	.LBB505:
  67:../../LUFA-Libs/Arduino_LUFA_Bootloader/LUFA/Drivers/USB/Core/AVR8/Template/Template_Endpoint_Control_R.c **** 		uint8_t USB_DeviceState_LCL = USB_DeviceState;
 3999               		.loc 5 67 0
 4000 0074 8EB3      		in r24,62-32
 4001               	.LVL378:
  69:../../LUFA-Libs/Arduino_LUFA_Bootloader/LUFA/Drivers/USB/Core/AVR8/Template/Template_Endpoint_Control_R.c **** 		if (USB_DeviceState_LCL == DEVICE_STATE_Unattached)
 4002               		.loc 5 69 0
 4003 0076 8823      		tst r24
 4004 0078 01F0      		breq .L323
  71:../../LUFA-Libs/Arduino_LUFA_Bootloader/LUFA/Drivers/USB/Core/AVR8/Template/Template_Endpoint_Control_R.c **** 		else if (USB_DeviceState_LCL == DEVICE_STATE_Suspended)
 4005               		.loc 5 71 0
 4006 007a 8530      		cpi r24,lo8(5)
 4007 007c 01F0      		breq .L324
 4008               	.LVL379:
 4009               	.L328:
 4010               	.LBE505:
 4011               	.LBB506:
 4012               	.LBB507:
 467:../../LUFA-Libs/Arduino_LUFA_Bootloader/LUFA/Drivers/USB/Core/AVR8/../AVR8/../AVR8/Endpoint_AVR8.h **** 				return ((UEINTX & (1 << TXINI)) ? true : false);
 4013               		.loc 2 467 0 discriminator 1
 4014 007e 8091 E800 		lds r24,232
 4015               	.LBE507:
 4016               	.LBE506:
  65:../../LUFA-Libs/Arduino_LUFA_Bootloader/LUFA/Drivers/USB/Core/AVR8/Template/Template_Endpoint_Control_R.c **** 	while (!(Endpoint_IsINReady()))
 4017               		.loc 5 65 0 discriminator 1
 4018 0082 80FF      		sbrs r24,0
 4019 0084 00C0      		rjmp .L319
  75:../../LUFA-Libs/Arduino_LUFA_Bootloader/LUFA/Drivers/USB/Core/AVR8/Template/Template_Endpoint_Control_R.c **** 	return ENDPOINT_RWCSTREAM_NoError;
 4020               		.loc 5 75 0
 4021 0086 80E0      		ldi r24,lo8(0)
 4022 0088 00C0      		rjmp .L312
 4023               	.L322:
 4024               	.LBB508:
  50:../../LUFA-Libs/Arduino_LUFA_Bootloader/LUFA/Drivers/USB/Core/AVR8/Template/Template_Endpoint_Control_R.c **** 		  return ENDPOINT_RWCSTREAM_HostAborted;
 4025               		.loc 5 50 0
 4026 008a 81E0      		ldi r24,lo8(1)
 4027 008c 00C0      		rjmp .L312
 4028               	.L323:
 4029               	.LBE508:
 4030               	.LBB509:
  70:../../LUFA-Libs/Arduino_LUFA_Bootloader/LUFA/Drivers/USB/Core/AVR8/Template/Template_Endpoint_Control_R.c **** 		  return ENDPOINT_RWCSTREAM_DeviceDisconnected;
 4031               		.loc 5 70 0
 4032 008e 82E0      		ldi r24,lo8(2)
 4033 0090 00C0      		rjmp .L312
 4034               	.L324:
  72:../../LUFA-Libs/Arduino_LUFA_Bootloader/LUFA/Drivers/USB/Core/AVR8/Template/Template_Endpoint_Control_R.c **** 		  return ENDPOINT_RWCSTREAM_BusSuspended;
 4035               		.loc 5 72 0
 4036 0092 83E0      		ldi r24,lo8(3)
 4037               	.L312:
 4038               	/* epilogue start */
 4039               	.LBE509:
 4040               		.loc 5 76 0
 4041 0094 DF91      		pop r29
 4042 0096 CF91      		pop r28
 4043               	.LVL380:
 4044 0098 1F91      		pop r17
 4045 009a 0F91      		pop r16
 4046               	.LVL381:
 4047 009c FF90      		pop r15
 4048 009e EF90      		pop r14
 4049 00a0 0895      		ret
 4050               		.cfi_endproc
 4051               	.LFE101:
 4053               		.section	.text.Endpoint_Read_Control_EStream_BE,"ax",@progbits
 4054               	.global	Endpoint_Read_Control_EStream_BE
 4056               	Endpoint_Read_Control_EStream_BE:
 4057               	.LFB102:
  35:../../LUFA-Libs/Arduino_LUFA_Bootloader/LUFA/Drivers/USB/Core/AVR8/Template/Template_Endpoint_Control_R.c **** {
 4058               		.loc 5 35 0
 4059               		.cfi_startproc
 4060               	.LVL382:
 4061 0000 EF92      		push r14
 4062               	.LCFI126:
 4063               		.cfi_def_cfa_offset 3
 4064               		.cfi_offset 14, -2
 4065 0002 FF92      		push r15
 4066               	.LCFI127:
 4067               		.cfi_def_cfa_offset 4
 4068               		.cfi_offset 15, -3
 4069 0004 0F93      		push r16
 4070               	.LCFI128:
 4071               		.cfi_def_cfa_offset 5
 4072               		.cfi_offset 16, -4
 4073 0006 1F93      		push r17
 4074               	.LCFI129:
 4075               		.cfi_def_cfa_offset 6
 4076               		.cfi_offset 17, -5
 4077 0008 CF93      		push r28
 4078               	.LCFI130:
 4079               		.cfi_def_cfa_offset 7
 4080               		.cfi_offset 28, -6
 4081 000a DF93      		push r29
 4082               	.LCFI131:
 4083               		.cfi_def_cfa_offset 8
 4084               		.cfi_offset 29, -7
 4085               	/* prologue: function */
 4086               	/* frame size = 0 */
 4087               	/* stack size = 6 */
 4088               	.L__stack_usage = 6
 4089 000c EB01      		movw r28,r22
  36:../../LUFA-Libs/Arduino_LUFA_Bootloader/LUFA/Drivers/USB/Core/AVR8/Template/Template_Endpoint_Control_R.c **** 	uint8_t* DataStream = ((uint8_t*)Buffer + TEMPLATE_BUFFER_OFFSET(Length));
 4090               		.loc 5 36 0
 4091 000e 8B01      		movw r16,r22
 4092 0010 0150      		subi r16,lo8(-(-1))
 4093 0012 1040      		sbci r17,hi8(-(-1))
 4094 0014 080F      		add r16,r24
 4095 0016 191F      		adc r17,r25
 4096               	.LVL383:
  38:../../LUFA-Libs/Arduino_LUFA_Bootloader/LUFA/Drivers/USB/Core/AVR8/Template/Template_Endpoint_Control_R.c **** 	if (!(Length))
 4097               		.loc 5 38 0
 4098 0018 2097      		sbiw r28,0
 4099 001a 01F4      		brne .L347
 4100 001c 00C0      		rjmp .L336
 4101               	.LVL384:
 4102               	.L348:
 4103               	.LBB510:
  43:../../LUFA-Libs/Arduino_LUFA_Bootloader/LUFA/Drivers/USB/Core/AVR8/Template/Template_Endpoint_Control_R.c **** 		uint8_t USB_DeviceState_LCL = USB_DeviceState;
 4104               		.loc 5 43 0
 4105 001e 8EB3      		in r24,62-32
 4106               	.LVL385:
  45:../../LUFA-Libs/Arduino_LUFA_Bootloader/LUFA/Drivers/USB/Core/AVR8/Template/Template_Endpoint_Control_R.c **** 		if (USB_DeviceState_LCL == DEVICE_STATE_Unattached)
 4107               		.loc 5 45 0
 4108 0020 8823      		tst r24
 4109 0022 01F0      		breq .L343
  47:../../LUFA-Libs/Arduino_LUFA_Bootloader/LUFA/Drivers/USB/Core/AVR8/Template/Template_Endpoint_Control_R.c **** 		else if (USB_DeviceState_LCL == DEVICE_STATE_Suspended)
 4110               		.loc 5 47 0
 4111 0024 8530      		cpi r24,lo8(5)
 4112 0026 01F0      		breq .L344
 4113               	.LBB511:
 4114               	.LBB512:
 491:../../LUFA-Libs/Arduino_LUFA_Bootloader/LUFA/Drivers/USB/Core/AVR8/../AVR8/../AVR8/Endpoint_AVR8.h **** 				return ((UEINTX & (1 << RXSTPI)) ? true : false);
 4115               		.loc 2 491 0
 4116 0028 8091 E800 		lds r24,232
 4117               	.LVL386:
 4118               	.LBE512:
 4119               	.LBE511:
  49:../../LUFA-Libs/Arduino_LUFA_Bootloader/LUFA/Drivers/USB/Core/AVR8/Template/Template_Endpoint_Control_R.c **** 		else if (Endpoint_IsSETUPReceived())
 4120               		.loc 5 49 0
 4121 002c 83FD      		sbrc r24,3
 4122 002e 00C0      		rjmp .L342
 4123               	.LBB513:
 4124               	.LBB514:
 479:../../LUFA-Libs/Arduino_LUFA_Bootloader/LUFA/Drivers/USB/Core/AVR8/../AVR8/../AVR8/Endpoint_AVR8.h **** 				return ((UEINTX & (1 << RXOUTI)) ? true : false);
 4125               		.loc 2 479 0
 4126 0030 8091 E800 		lds r24,232
 4127               	.LBE514:
 4128               	.LBE513:
  52:../../LUFA-Libs/Arduino_LUFA_Bootloader/LUFA/Drivers/USB/Core/AVR8/Template/Template_Endpoint_Control_R.c **** 		if (Endpoint_IsOUTReceived())
 4129               		.loc 5 52 0
 4130 0034 82FF      		sbrs r24,2
 4131 0036 00C0      		rjmp .L348
 4132 0038 00C0      		rjmp .L345
 4133               	.L337:
 4134               	.LBB515:
 4135               	.LBB516:
 612:../../LUFA-Libs/Arduino_LUFA_Bootloader/LUFA/Drivers/USB/Core/AVR8/../AVR8/../AVR8/Endpoint_AVR8.h **** 				return UEDATX;
 4136               		.loc 2 612 0
 4137 003a 6091 F100 		lds r22,241
 4138               	.LBE516:
 4139               	.LBE515:
  56:../../LUFA-Libs/Arduino_LUFA_Bootloader/LUFA/Drivers/USB/Core/AVR8/Template/Template_Endpoint_Control_R.c **** 				TEMPLATE_TRANSFER_BYTE(DataStream);
 4140               		.loc 5 56 0
 4141 003e C801      		movw r24,r16
 4142 0040 0E94 0000 		call __eeupd_byte_m32u4
  57:../../LUFA-Libs/Arduino_LUFA_Bootloader/LUFA/Drivers/USB/Core/AVR8/Template/Template_Endpoint_Control_R.c **** 				TEMPLATE_BUFFER_MOVE(DataStream, 1);
 4143               		.loc 5 57 0
 4144 0044 0150      		subi r16,lo8(-(-1))
 4145 0046 1040      		sbci r17,hi8(-(-1))
 4146               	.LVL387:
  58:../../LUFA-Libs/Arduino_LUFA_Bootloader/LUFA/Drivers/USB/Core/AVR8/Template/Template_Endpoint_Control_R.c **** 				Length--;
 4147               		.loc 5 58 0
 4148 0048 2197      		sbiw r28,1
 4149               	.LVL388:
  54:../../LUFA-Libs/Arduino_LUFA_Bootloader/LUFA/Drivers/USB/Core/AVR8/Template/Template_Endpoint_Control_R.c **** 			while (Length && Endpoint_BytesInEndpoint())
 4150               		.loc 5 54 0
 4151 004a 01F0      		breq .L336
 4152               	.L345:
 4153               	.LBB517:
 4154               	.LBB518:
 295:../../LUFA-Libs/Arduino_LUFA_Bootloader/LUFA/Drivers/USB/Core/AVR8/../AVR8/../AVR8/Endpoint_AVR8.h **** 					return (((uint16_t)UEBCHX << 8) | UEBCLX);
 4155               		.loc 2 295 0
 4156 004c 9091 F300 		lds r25,243
 4157 0050 8091 F200 		lds r24,242
 4158 0054 F92E      		mov r15,r25
 4159 0056 EE24      		clr r14
 4160 0058 90E0      		ldi r25,lo8(0)
 4161 005a 8E29      		or r24,r14
 4162 005c 9F29      		or r25,r15
 4163               	.LBE518:
 4164               	.LBE517:
  54:../../LUFA-Libs/Arduino_LUFA_Bootloader/LUFA/Drivers/USB/Core/AVR8/Template/Template_Endpoint_Control_R.c **** 			while (Length && Endpoint_BytesInEndpoint())
 4165               		.loc 5 54 0
 4166 005e 0097      		sbiw r24,0
 4167 0060 01F4      		brne .L337
 4168               	.L336:
 4169               	.LBB519:
 4170               	.LBB520:
 531:../../LUFA-Libs/Arduino_LUFA_Bootloader/LUFA/Drivers/USB/Core/AVR8/../AVR8/../AVR8/Endpoint_AVR8.h **** 					UEINTX &= ~((1 << RXOUTI) | (1 << FIFOCON));
 4171               		.loc 2 531 0
 4172 0062 8091 E800 		lds r24,232
 4173 0066 8B77      		andi r24,lo8(123)
 4174 0068 8093 E800 		sts 232,r24
 4175               	.L347:
 4176               	.LBE520:
 4177               	.LBE519:
 4178               	.LBE510:
  41:../../LUFA-Libs/Arduino_LUFA_Bootloader/LUFA/Drivers/USB/Core/AVR8/Template/Template_Endpoint_Control_R.c **** 	while (Length)
 4179               		.loc 5 41 0 discriminator 1
 4180 006c 2097      		sbiw r28,0
 4181 006e 01F4      		brne .L348
 4182 0070 00C0      		rjmp .L349
 4183               	.L339:
 4184               	.LBB521:
  67:../../LUFA-Libs/Arduino_LUFA_Bootloader/LUFA/Drivers/USB/Core/AVR8/Template/Template_Endpoint_Control_R.c **** 		uint8_t USB_DeviceState_LCL = USB_DeviceState;
 4185               		.loc 5 67 0
 4186 0072 8EB3      		in r24,62-32
 4187               	.LVL389:
  69:../../LUFA-Libs/Arduino_LUFA_Bootloader/LUFA/Drivers/USB/Core/AVR8/Template/Template_Endpoint_Control_R.c **** 		if (USB_DeviceState_LCL == DEVICE_STATE_Unattached)
 4188               		.loc 5 69 0
 4189 0074 8823      		tst r24
 4190 0076 01F0      		breq .L343
  71:../../LUFA-Libs/Arduino_LUFA_Bootloader/LUFA/Drivers/USB/Core/AVR8/Template/Template_Endpoint_Control_R.c **** 		else if (USB_DeviceState_LCL == DEVICE_STATE_Suspended)
 4191               		.loc 5 71 0
 4192 0078 8530      		cpi r24,lo8(5)
 4193 007a 01F0      		breq .L344
 4194               	.LVL390:
 4195               	.L349:
 4196               	.LBE521:
 4197               	.LBB522:
 4198               	.LBB523:
 467:../../LUFA-Libs/Arduino_LUFA_Bootloader/LUFA/Drivers/USB/Core/AVR8/../AVR8/../AVR8/Endpoint_AVR8.h **** 				return ((UEINTX & (1 << TXINI)) ? true : false);
 4199               		.loc 2 467 0 discriminator 1
 4200 007c 8091 E800 		lds r24,232
 4201               	.LBE523:
 4202               	.LBE522:
  65:../../LUFA-Libs/Arduino_LUFA_Bootloader/LUFA/Drivers/USB/Core/AVR8/Template/Template_Endpoint_Control_R.c **** 	while (!(Endpoint_IsINReady()))
 4203               		.loc 5 65 0 discriminator 1
 4204 0080 80FF      		sbrs r24,0
 4205 0082 00C0      		rjmp .L339
  75:../../LUFA-Libs/Arduino_LUFA_Bootloader/LUFA/Drivers/USB/Core/AVR8/Template/Template_Endpoint_Control_R.c **** 	return ENDPOINT_RWCSTREAM_NoError;
 4206               		.loc 5 75 0
 4207 0084 80E0      		ldi r24,lo8(0)
 4208 0086 00C0      		rjmp .L332
 4209               	.L342:
 4210               	.LBB524:
  50:../../LUFA-Libs/Arduino_LUFA_Bootloader/LUFA/Drivers/USB/Core/AVR8/Template/Template_Endpoint_Control_R.c **** 		  return ENDPOINT_RWCSTREAM_HostAborted;
 4211               		.loc 5 50 0
 4212 0088 81E0      		ldi r24,lo8(1)
 4213 008a 00C0      		rjmp .L332
 4214               	.L343:
 4215               	.LBE524:
 4216               	.LBB525:
  70:../../LUFA-Libs/Arduino_LUFA_Bootloader/LUFA/Drivers/USB/Core/AVR8/Template/Template_Endpoint_Control_R.c **** 		  return ENDPOINT_RWCSTREAM_DeviceDisconnected;
 4217               		.loc 5 70 0
 4218 008c 82E0      		ldi r24,lo8(2)
 4219 008e 00C0      		rjmp .L332
 4220               	.L344:
  72:../../LUFA-Libs/Arduino_LUFA_Bootloader/LUFA/Drivers/USB/Core/AVR8/Template/Template_Endpoint_Control_R.c **** 		  return ENDPOINT_RWCSTREAM_BusSuspended;
 4221               		.loc 5 72 0
 4222 0090 83E0      		ldi r24,lo8(3)
 4223               	.L332:
 4224               	/* epilogue start */
 4225               	.LBE525:
 4226               		.loc 5 76 0
 4227 0092 DF91      		pop r29
 4228 0094 CF91      		pop r28
 4229               	.LVL391:
 4230 0096 1F91      		pop r17
 4231 0098 0F91      		pop r16
 4232               	.LVL392:
 4233 009a FF90      		pop r15
 4234 009c EF90      		pop r14
 4235 009e 0895      		ret
 4236               		.cfi_endproc
 4237               	.LFE102:
 4239               		.text
 4240               	.Letext0:
 4241               		.file 6 "c:\\program files (x86)\\atmel\\atmel studio 6.0\\extensions\\atmel\\avrgcc\\3.4.0.65\\av
 4242               		.file 7 "../../LUFA-Libs/Arduino_LUFA_Bootloader/LUFA/Drivers/USB/Core/AVR8/../AVR8/../StdRequestT
 4243               		.file 8 "../../LUFA-Libs/Arduino_LUFA_Bootloader/LUFA/Drivers/USB/Core/AVR8/../AVR8/../Device.h"
 4244               		.file 9 "../../LUFA-Libs/Arduino_LUFA_Bootloader/LUFA/Drivers/USB/Core/AVR8/../AVR8/../EndpointStr
 4245               		.file 10 "../../LUFA-Libs/Arduino_LUFA_Bootloader/LUFA/Drivers/USB/Core/AVR8/../USBTask.h"
DEFINED SYMBOLS
                            *ABS*:00000000 EndpointStream_AVR8.c
C:\Users\Brian\AppData\Local\Temp\cci9S21V.s:2      *ABS*:0000003f __SREG__
C:\Users\Brian\AppData\Local\Temp\cci9S21V.s:3      *ABS*:0000003e __SP_H__
C:\Users\Brian\AppData\Local\Temp\cci9S21V.s:4      *ABS*:0000003d __SP_L__
C:\Users\Brian\AppData\Local\Temp\cci9S21V.s:5      *ABS*:00000034 __CCP__
C:\Users\Brian\AppData\Local\Temp\cci9S21V.s:6      *ABS*:00000000 __tmp_reg__
C:\Users\Brian\AppData\Local\Temp\cci9S21V.s:7      *ABS*:00000001 __zero_reg__
C:\Users\Brian\AppData\Local\Temp\cci9S21V.s:16     .text.Endpoint_Discard_Stream:00000000 Endpoint_Discard_Stream
C:\Users\Brian\AppData\Local\Temp\cci9S21V.s:169    .text.Endpoint_Null_Stream:00000000 Endpoint_Null_Stream
C:\Users\Brian\AppData\Local\Temp\cci9S21V.s:320    .text.Endpoint_Write_Stream_LE:00000000 Endpoint_Write_Stream_LE
C:\Users\Brian\AppData\Local\Temp\cci9S21V.s:496    .text.Endpoint_Write_Stream_BE:00000000 Endpoint_Write_Stream_BE
C:\Users\Brian\AppData\Local\Temp\cci9S21V.s:681    .text.Endpoint_Read_Stream_LE:00000000 Endpoint_Read_Stream_LE
C:\Users\Brian\AppData\Local\Temp\cci9S21V.s:855    .text.Endpoint_Read_Stream_BE:00000000 Endpoint_Read_Stream_BE
C:\Users\Brian\AppData\Local\Temp\cci9S21V.s:1039   .text.Endpoint_Write_PStream_LE:00000000 Endpoint_Write_PStream_LE
C:\Users\Brian\AppData\Local\Temp\cci9S21V.s:1224   .text.Endpoint_Write_PStream_BE:00000000 Endpoint_Write_PStream_BE
C:\Users\Brian\AppData\Local\Temp\cci9S21V.s:1417   .text.Endpoint_Write_EStream_LE:00000000 Endpoint_Write_EStream_LE
C:\Users\Brian\AppData\Local\Temp\cci9S21V.s:1596   .text.Endpoint_Write_EStream_BE:00000000 Endpoint_Write_EStream_BE
C:\Users\Brian\AppData\Local\Temp\cci9S21V.s:1782   .text.Endpoint_Read_EStream_LE:00000000 Endpoint_Read_EStream_LE
C:\Users\Brian\AppData\Local\Temp\cci9S21V.s:1960   .text.Endpoint_Read_EStream_BE:00000000 Endpoint_Read_EStream_BE
C:\Users\Brian\AppData\Local\Temp\cci9S21V.s:2145   .text.Endpoint_Write_Control_Stream_LE:00000000 Endpoint_Write_Control_Stream_LE
C:\Users\Brian\AppData\Local\Temp\cci9S21V.s:2354   .text.Endpoint_Write_Control_Stream_BE:00000000 Endpoint_Write_Control_Stream_BE
C:\Users\Brian\AppData\Local\Temp\cci9S21V.s:2570   .text.Endpoint_Read_Control_Stream_LE:00000000 Endpoint_Read_Control_Stream_LE
C:\Users\Brian\AppData\Local\Temp\cci9S21V.s:2744   .text.Endpoint_Read_Control_Stream_BE:00000000 Endpoint_Read_Control_Stream_BE
C:\Users\Brian\AppData\Local\Temp\cci9S21V.s:2903   .text.Endpoint_Write_Control_PStream_LE:00000000 Endpoint_Write_Control_PStream_LE
C:\Users\Brian\AppData\Local\Temp\cci9S21V.s:3121   .text.Endpoint_Write_Control_PStream_BE:00000000 Endpoint_Write_Control_PStream_BE
C:\Users\Brian\AppData\Local\Temp\cci9S21V.s:3345   .text.Endpoint_Write_Control_EStream_LE:00000000 Endpoint_Write_Control_EStream_LE
C:\Users\Brian\AppData\Local\Temp\cci9S21V.s:3602   .text.Endpoint_Write_Control_EStream_BE:00000000 Endpoint_Write_Control_EStream_BE
C:\Users\Brian\AppData\Local\Temp\cci9S21V.s:3864   .text.Endpoint_Read_Control_EStream_LE:00000000 Endpoint_Read_Control_EStream_LE
C:\Users\Brian\AppData\Local\Temp\cci9S21V.s:4056   .text.Endpoint_Read_Control_EStream_BE:00000000 Endpoint_Read_Control_EStream_BE

UNDEFINED SYMBOLS
__do_copy_data
__do_clear_bss
Endpoint_WaitUntilReady
USB_USBTask
__eerd_byte_m32u4
__eeupd_byte_m32u4
USB_ControlRequest
